
MICROFINAL.elf:     file format elf32-avr

Sections:
Idx Name          Size      VMA       LMA       File off  Algn
  0 .data         00000004  00800100  00002b98  00002c2c  2**0
                  CONTENTS, ALLOC, LOAD, DATA
  1 .text         00002b98  00000000  00000000  00000094  2**1
                  CONTENTS, ALLOC, LOAD, READONLY, CODE
  2 .bss          00000001  00800104  00800104  00002c30  2**0
                  ALLOC
  3 .comment      00000030  00000000  00000000  00002c30  2**0
                  CONTENTS, READONLY
  4 .note.gnu.avr.deviceinfo 00000040  00000000  00000000  00002c60  2**2
                  CONTENTS, READONLY
  5 .debug_aranges 00000060  00000000  00000000  00002ca0  2**0
                  CONTENTS, READONLY, DEBUGGING
  6 .debug_info   00005f92  00000000  00000000  00002d00  2**0
                  CONTENTS, READONLY, DEBUGGING
  7 .debug_abbrev 00000771  00000000  00000000  00008c92  2**0
                  CONTENTS, READONLY, DEBUGGING
  8 .debug_line   0000129e  00000000  00000000  00009403  2**0
                  CONTENTS, READONLY, DEBUGGING
  9 .debug_frame  00000118  00000000  00000000  0000a6a4  2**2
                  CONTENTS, READONLY, DEBUGGING
 10 .debug_str    0000044b  00000000  00000000  0000a7bc  2**0
                  CONTENTS, READONLY, DEBUGGING
 11 .debug_loc    000005e9  00000000  00000000  0000ac07  2**0
                  CONTENTS, READONLY, DEBUGGING
 12 .debug_ranges 00000050  00000000  00000000  0000b1f0  2**0
                  CONTENTS, READONLY, DEBUGGING

Disassembly of section .text:

00000000 <__vectors>:
       0:	0c 94 54 00 	jmp	0xa8	; 0xa8 <__ctors_end>
       4:	0c 94 71 00 	jmp	0xe2	; 0xe2 <__bad_interrupt>
       8:	0c 94 71 00 	jmp	0xe2	; 0xe2 <__bad_interrupt>
       c:	0c 94 71 00 	jmp	0xe2	; 0xe2 <__bad_interrupt>
      10:	0c 94 71 00 	jmp	0xe2	; 0xe2 <__bad_interrupt>
      14:	0c 94 71 00 	jmp	0xe2	; 0xe2 <__bad_interrupt>
      18:	0c 94 71 00 	jmp	0xe2	; 0xe2 <__bad_interrupt>
      1c:	0c 94 71 00 	jmp	0xe2	; 0xe2 <__bad_interrupt>
      20:	0c 94 71 00 	jmp	0xe2	; 0xe2 <__bad_interrupt>
      24:	0c 94 71 00 	jmp	0xe2	; 0xe2 <__bad_interrupt>
      28:	0c 94 71 00 	jmp	0xe2	; 0xe2 <__bad_interrupt>
      2c:	0c 94 71 00 	jmp	0xe2	; 0xe2 <__bad_interrupt>
      30:	0c 94 71 00 	jmp	0xe2	; 0xe2 <__bad_interrupt>
      34:	0c 94 71 00 	jmp	0xe2	; 0xe2 <__bad_interrupt>
      38:	0c 94 71 00 	jmp	0xe2	; 0xe2 <__bad_interrupt>
      3c:	0c 94 71 00 	jmp	0xe2	; 0xe2 <__bad_interrupt>
      40:	0c 94 71 00 	jmp	0xe2	; 0xe2 <__bad_interrupt>
      44:	0c 94 71 00 	jmp	0xe2	; 0xe2 <__bad_interrupt>
      48:	0c 94 71 00 	jmp	0xe2	; 0xe2 <__bad_interrupt>
      4c:	0c 94 71 00 	jmp	0xe2	; 0xe2 <__bad_interrupt>
      50:	0c 94 71 00 	jmp	0xe2	; 0xe2 <__bad_interrupt>
      54:	0c 94 71 00 	jmp	0xe2	; 0xe2 <__bad_interrupt>
      58:	0c 94 71 00 	jmp	0xe2	; 0xe2 <__bad_interrupt>
      5c:	0c 94 71 00 	jmp	0xe2	; 0xe2 <__bad_interrupt>
      60:	0c 94 71 00 	jmp	0xe2	; 0xe2 <__bad_interrupt>
      64:	0c 94 71 00 	jmp	0xe2	; 0xe2 <__bad_interrupt>
      68:	42 01       	movw	r8, r4
      6a:	e5 00       	.word	0x00e5	; ????
      6c:	e8 00       	.word	0x00e8	; ????
      6e:	eb 00       	.word	0x00eb	; ????
      70:	ee 00       	.word	0x00ee	; ????
      72:	f1 00       	.word	0x00f1	; ????
      74:	f4 00       	.word	0x00f4	; ????
      76:	f7 00       	.word	0x00f7	; ????
      78:	fa 00       	.word	0x00fa	; ????
      7a:	fd 00       	.word	0x00fd	; ????
      7c:	00 01       	movw	r0, r0
      7e:	03 01       	movw	r0, r6
      80:	06 01       	movw	r0, r12
      82:	09 01       	movw	r0, r18
      84:	0c 01       	movw	r0, r24
      86:	0f 01       	movw	r0, r30
      88:	12 01       	movw	r2, r4
      8a:	15 01       	movw	r2, r10
      8c:	18 01       	movw	r2, r16
      8e:	1b 01       	movw	r2, r22
      90:	1e 01       	movw	r2, r28
      92:	21 01       	movw	r4, r2
      94:	24 01       	movw	r4, r8
      96:	27 01       	movw	r4, r14
      98:	2a 01       	movw	r4, r20
      9a:	2d 01       	movw	r4, r26
      9c:	30 01       	movw	r6, r0
      9e:	33 01       	movw	r6, r6
      a0:	36 01       	movw	r6, r12
      a2:	39 01       	movw	r6, r18
      a4:	3c 01       	movw	r6, r24
      a6:	3f 01       	movw	r6, r30

000000a8 <__ctors_end>:
      a8:	11 24       	eor	r1, r1
      aa:	1f be       	out	0x3f, r1	; 63
      ac:	cf ef       	ldi	r28, 0xFF	; 255
      ae:	d8 e0       	ldi	r29, 0x08	; 8
      b0:	de bf       	out	0x3e, r29	; 62
      b2:	cd bf       	out	0x3d, r28	; 61

000000b4 <__do_copy_data>:
      b4:	11 e0       	ldi	r17, 0x01	; 1
      b6:	a0 e0       	ldi	r26, 0x00	; 0
      b8:	b1 e0       	ldi	r27, 0x01	; 1
      ba:	e8 e9       	ldi	r30, 0x98	; 152
      bc:	fb e2       	ldi	r31, 0x2B	; 43
      be:	02 c0       	rjmp	.+4      	; 0xc4 <__do_copy_data+0x10>
      c0:	05 90       	lpm	r0, Z+
      c2:	0d 92       	st	X+, r0
      c4:	a4 30       	cpi	r26, 0x04	; 4
      c6:	b1 07       	cpc	r27, r17
      c8:	d9 f7       	brne	.-10     	; 0xc0 <__do_copy_data+0xc>

000000ca <__do_clear_bss>:
      ca:	21 e0       	ldi	r18, 0x01	; 1
      cc:	a4 e0       	ldi	r26, 0x04	; 4
      ce:	b1 e0       	ldi	r27, 0x01	; 1
      d0:	01 c0       	rjmp	.+2      	; 0xd4 <.do_clear_bss_start>

000000d2 <.do_clear_bss_loop>:
      d2:	1d 92       	st	X+, r1

000000d4 <.do_clear_bss_start>:
      d4:	a5 30       	cpi	r26, 0x05	; 5
      d6:	b2 07       	cpc	r27, r18
      d8:	e1 f7       	brne	.-8      	; 0xd2 <.do_clear_bss_loop>
      da:	0e 94 ed 13 	call	0x27da	; 0x27da <main>
      de:	0c 94 ca 15 	jmp	0x2b94	; 0x2b94 <_exit>

000000e2 <__bad_interrupt>:
      e2:	0c 94 00 00 	jmp	0	; 0x0 <__vectors>

000000e6 <custom_delay_ms>:
// so like portD |= (1<<D) where D would be 1 cause its bit 1
//please im begging you dont break the realys, they are rated for 100,000 cycles

void custom_delay_ms(unsigned int ms) {
	unsigned int i;
	for (i = 0; i < ms; i++) {
      e6:	20 e0       	ldi	r18, 0x00	; 0
      e8:	30 e0       	ldi	r19, 0x00	; 0
      ea:	08 c0       	rjmp	.+16     	; 0xfc <custom_delay_ms+0x16>
	#else
		//round up by default
		__ticks_dc = (uint32_t)(ceil(fabs(__tmp)));
	#endif

	__builtin_avr_delay_cycles(__ticks_dc);
      ec:	ef e9       	ldi	r30, 0x9F	; 159
      ee:	ff e0       	ldi	r31, 0x0F	; 15
      f0:	31 97       	sbiw	r30, 0x01	; 1
      f2:	f1 f7       	brne	.-4      	; 0xf0 <custom_delay_ms+0xa>
      f4:	00 c0       	rjmp	.+0      	; 0xf6 <custom_delay_ms+0x10>
      f6:	00 00       	nop
      f8:	2f 5f       	subi	r18, 0xFF	; 255
      fa:	3f 4f       	sbci	r19, 0xFF	; 255
      fc:	28 17       	cp	r18, r24
      fe:	39 07       	cpc	r19, r25
     100:	a8 f3       	brcs	.-22     	; 0xec <custom_delay_ms+0x6>
		_delay_ms(1); // Use built-in delay function for 1 millisecond
	}
}
     102:	08 95       	ret

00000104 <shiftOutPORTD>:



void shiftOutPORTD(char DATAP, char CLKP, char data){
		for (char i = 0; i < 8; i++) {
     104:	90 e0       	ldi	r25, 0x00	; 0
     106:	36 c0       	rjmp	.+108    	; 0x174 <shiftOutPORTD+0x70>
			// Output the current bit on the data pin
			if (data & (1 << (7 - i))) {
     108:	e7 e0       	ldi	r30, 0x07	; 7
     10a:	f0 e0       	ldi	r31, 0x00	; 0
     10c:	e9 1b       	sub	r30, r25
     10e:	f1 09       	sbc	r31, r1
     110:	24 2f       	mov	r18, r20
     112:	30 e0       	ldi	r19, 0x00	; 0
     114:	02 c0       	rjmp	.+4      	; 0x11a <shiftOutPORTD+0x16>
     116:	35 95       	asr	r19
     118:	27 95       	ror	r18
     11a:	ea 95       	dec	r30
     11c:	e2 f7       	brpl	.-8      	; 0x116 <shiftOutPORTD+0x12>
     11e:	20 ff       	sbrs	r18, 0
     120:	0c c0       	rjmp	.+24     	; 0x13a <shiftOutPORTD+0x36>
				PORTD |= (1 << DATAP);  // Set data pin high
     122:	5b b1       	in	r21, 0x0b	; 11
     124:	21 e0       	ldi	r18, 0x01	; 1
     126:	30 e0       	ldi	r19, 0x00	; 0
     128:	08 2e       	mov	r0, r24
     12a:	02 c0       	rjmp	.+4      	; 0x130 <shiftOutPORTD+0x2c>
     12c:	22 0f       	add	r18, r18
     12e:	33 1f       	adc	r19, r19
     130:	0a 94       	dec	r0
     132:	e2 f7       	brpl	.-8      	; 0x12c <shiftOutPORTD+0x28>
     134:	25 2b       	or	r18, r21
     136:	2b b9       	out	0x0b, r18	; 11
     138:	0c c0       	rjmp	.+24     	; 0x152 <shiftOutPORTD+0x4e>
				} else {
				PORTD &= ~(1 << DATAP); // Set data pin low
     13a:	5b b1       	in	r21, 0x0b	; 11
     13c:	21 e0       	ldi	r18, 0x01	; 1
     13e:	30 e0       	ldi	r19, 0x00	; 0
     140:	08 2e       	mov	r0, r24
     142:	02 c0       	rjmp	.+4      	; 0x148 <shiftOutPORTD+0x44>
     144:	22 0f       	add	r18, r18
     146:	33 1f       	adc	r19, r19
     148:	0a 94       	dec	r0
     14a:	e2 f7       	brpl	.-8      	; 0x144 <shiftOutPORTD+0x40>
     14c:	20 95       	com	r18
     14e:	25 23       	and	r18, r21
     150:	2b b9       	out	0x0b, r18	; 11
			}
			
			// Pulse the clock pin to shift the next bit
			PORTD |= (1 << CLKP);    // Set clock pin high
     152:	5b b1       	in	r21, 0x0b	; 11
     154:	21 e0       	ldi	r18, 0x01	; 1
     156:	30 e0       	ldi	r19, 0x00	; 0
     158:	06 2e       	mov	r0, r22
     15a:	02 c0       	rjmp	.+4      	; 0x160 <shiftOutPORTD+0x5c>
     15c:	22 0f       	add	r18, r18
     15e:	33 1f       	adc	r19, r19
     160:	0a 94       	dec	r0
     162:	e2 f7       	brpl	.-8      	; 0x15c <shiftOutPORTD+0x58>
     164:	35 2f       	mov	r19, r21
     166:	32 2b       	or	r19, r18
     168:	3b b9       	out	0x0b, r19	; 11
			PORTD &= ~(1 << CLKP);   // Set clock pin low
     16a:	3b b1       	in	r19, 0x0b	; 11
     16c:	20 95       	com	r18
     16e:	23 23       	and	r18, r19
     170:	2b b9       	out	0x0b, r18	; 11
}



void shiftOutPORTD(char DATAP, char CLKP, char data){
		for (char i = 0; i < 8; i++) {
     172:	9f 5f       	subi	r25, 0xFF	; 255
     174:	98 30       	cpi	r25, 0x08	; 8
     176:	40 f2       	brcs	.-112    	; 0x108 <shiftOutPORTD+0x4>
			
			// Pulse the clock pin to shift the next bit
			PORTD |= (1 << CLKP);    // Set clock pin high
			PORTD &= ~(1 << CLKP);   // Set clock pin low
		}
	}
     178:	08 95       	ret

0000017a <shiftRegisterDisplay>:
void shiftRegisterDisplay(char bar){
		//data pin SER (1<<0);
		//update clock latch SRCLK (1<<1);
		//Output pin RCLK (1<<2);
		
		PORTD &= ~(1 << 1); // CLKP low
     17a:	9b b1       	in	r25, 0x0b	; 11
     17c:	9d 7f       	andi	r25, 0xFD	; 253
     17e:	9b b9       	out	0x0b, r25	; 11
		PORTD &= ~(1 << 2); // RCLK low
     180:	9b b1       	in	r25, 0x0b	; 11
     182:	9b 7f       	andi	r25, 0xFB	; 251
     184:	9b b9       	out	0x0b, r25	; 11
		
		PORTD &= ~(1<<2);
     186:	9b b1       	in	r25, 0x0b	; 11
     188:	9b 7f       	andi	r25, 0xFB	; 251
     18a:	9b b9       	out	0x0b, r25	; 11
		shiftOutPORTD(0,1,bar);
     18c:	48 2f       	mov	r20, r24
     18e:	61 e0       	ldi	r22, 0x01	; 1
     190:	80 e0       	ldi	r24, 0x00	; 0
     192:	0e 94 82 00 	call	0x104	; 0x104 <shiftOutPORTD>
		PORTD |= (1<<2);
     196:	8b b1       	in	r24, 0x0b	; 11
     198:	84 60       	ori	r24, 0x04	; 4
     19a:	8b b9       	out	0x0b, r24	; 11
     19c:	08 95       	ret

0000019e <playNote>:
		
	}
	
void playNote(float BPM,char noteDuration, char note){
     19e:	cf 92       	push	r12
     1a0:	df 92       	push	r13
     1a2:	ef 92       	push	r14
     1a4:	ff 92       	push	r15
     1a6:	1f 93       	push	r17
     1a8:	cf 93       	push	r28
     1aa:	df 93       	push	r29
     1ac:	d4 2f       	mov	r29, r20
	char shift;
	char octave;
	
	switch(note){
     1ae:	c2 2e       	mov	r12, r18
     1b0:	d1 2c       	mov	r13, r1
     1b2:	f6 01       	movw	r30, r12
     1b4:	31 97       	sbiw	r30, 0x01	; 1
     1b6:	e0 32       	cpi	r30, 0x20	; 32
     1b8:	f1 05       	cpc	r31, r1
     1ba:	20 f4       	brcc	.+8      	; 0x1c4 <playNote+0x26>
     1bc:	ec 5c       	subi	r30, 0xCC	; 204
     1be:	ff 4f       	sbci	r31, 0xFF	; 255
     1c0:	0c 94 c4 15 	jmp	0x2b88	; 0x2b88 <__tablejump2__>
		case 0: shift = 0; octave = 0; break;
     1c4:	c0 e0       	ldi	r28, 0x00	; 0
     1c6:	10 e0       	ldi	r17, 0x00	; 0
     1c8:	5f c0       	rjmp	.+190    	; 0x288 <playNote+0xea>
		case 1: shift = 1; octave = 0; break;
		case 2: shift = 2; octave = 0; break;
     1ca:	c0 e0       	ldi	r28, 0x00	; 0
     1cc:	12 e0       	ldi	r17, 0x02	; 2
     1ce:	5c c0       	rjmp	.+184    	; 0x288 <playNote+0xea>
		case 3: shift = 3; octave = 0; break;
     1d0:	c0 e0       	ldi	r28, 0x00	; 0
     1d2:	13 e0       	ldi	r17, 0x03	; 3
     1d4:	59 c0       	rjmp	.+178    	; 0x288 <playNote+0xea>
		case 4: shift = 4; octave = 0; break;
     1d6:	c0 e0       	ldi	r28, 0x00	; 0
     1d8:	14 e0       	ldi	r17, 0x04	; 4
     1da:	56 c0       	rjmp	.+172    	; 0x288 <playNote+0xea>
		case 5: shift = 5; octave = 0; break;
     1dc:	c0 e0       	ldi	r28, 0x00	; 0
     1de:	15 e0       	ldi	r17, 0x05	; 5
     1e0:	53 c0       	rjmp	.+166    	; 0x288 <playNote+0xea>
		case 6: shift = 6; octave = 0; break;
     1e2:	c0 e0       	ldi	r28, 0x00	; 0
     1e4:	16 e0       	ldi	r17, 0x06	; 6
     1e6:	50 c0       	rjmp	.+160    	; 0x288 <playNote+0xea>
		case 7: shift = 7; octave = 0; break;
     1e8:	c0 e0       	ldi	r28, 0x00	; 0
     1ea:	17 e0       	ldi	r17, 0x07	; 7
     1ec:	4d c0       	rjmp	.+154    	; 0x288 <playNote+0xea>
		case 8: shift = 0; octave = 1; break;
     1ee:	c1 e0       	ldi	r28, 0x01	; 1
     1f0:	10 e0       	ldi	r17, 0x00	; 0
     1f2:	4a c0       	rjmp	.+148    	; 0x288 <playNote+0xea>
		case 9: shift = 1; octave = 1; break;
     1f4:	c1 e0       	ldi	r28, 0x01	; 1
     1f6:	11 e0       	ldi	r17, 0x01	; 1
     1f8:	47 c0       	rjmp	.+142    	; 0x288 <playNote+0xea>
		case 10: shift = 2; octave = 1; break;
     1fa:	c1 e0       	ldi	r28, 0x01	; 1
     1fc:	12 e0       	ldi	r17, 0x02	; 2
     1fe:	44 c0       	rjmp	.+136    	; 0x288 <playNote+0xea>
		case 11: shift = 3; octave = 1; break;
     200:	c1 e0       	ldi	r28, 0x01	; 1
     202:	13 e0       	ldi	r17, 0x03	; 3
     204:	41 c0       	rjmp	.+130    	; 0x288 <playNote+0xea>
		case 12: shift = 4; octave = 1; break;
     206:	c1 e0       	ldi	r28, 0x01	; 1
     208:	14 e0       	ldi	r17, 0x04	; 4
     20a:	3e c0       	rjmp	.+124    	; 0x288 <playNote+0xea>
		case 13: shift = 5; octave = 1; break;
     20c:	c1 e0       	ldi	r28, 0x01	; 1
     20e:	15 e0       	ldi	r17, 0x05	; 5
     210:	3b c0       	rjmp	.+118    	; 0x288 <playNote+0xea>
		case 14: shift = 6; octave = 1; break;
     212:	c1 e0       	ldi	r28, 0x01	; 1
     214:	16 e0       	ldi	r17, 0x06	; 6
     216:	38 c0       	rjmp	.+112    	; 0x288 <playNote+0xea>
		case 15: shift = 7; octave = 1; break;
     218:	c1 e0       	ldi	r28, 0x01	; 1
     21a:	17 e0       	ldi	r17, 0x07	; 7
     21c:	35 c0       	rjmp	.+106    	; 0x288 <playNote+0xea>
		case 16: shift = 0; octave = 2; break;
     21e:	c2 e0       	ldi	r28, 0x02	; 2
     220:	10 e0       	ldi	r17, 0x00	; 0
     222:	32 c0       	rjmp	.+100    	; 0x288 <playNote+0xea>
		case 17: shift = 1; octave = 2; break;
     224:	c2 e0       	ldi	r28, 0x02	; 2
     226:	11 e0       	ldi	r17, 0x01	; 1
     228:	2f c0       	rjmp	.+94     	; 0x288 <playNote+0xea>
		case 18: shift = 2; octave = 2; break;
     22a:	c2 e0       	ldi	r28, 0x02	; 2
     22c:	12 e0       	ldi	r17, 0x02	; 2
     22e:	2c c0       	rjmp	.+88     	; 0x288 <playNote+0xea>
		case 19: shift = 3; octave = 2; break;
     230:	c2 e0       	ldi	r28, 0x02	; 2
     232:	13 e0       	ldi	r17, 0x03	; 3
     234:	29 c0       	rjmp	.+82     	; 0x288 <playNote+0xea>
		case 20: shift = 4; octave = 2; break;
     236:	c2 e0       	ldi	r28, 0x02	; 2
     238:	14 e0       	ldi	r17, 0x04	; 4
     23a:	26 c0       	rjmp	.+76     	; 0x288 <playNote+0xea>
		case 21: shift = 5; octave = 2; break;
     23c:	c2 e0       	ldi	r28, 0x02	; 2
     23e:	15 e0       	ldi	r17, 0x05	; 5
     240:	23 c0       	rjmp	.+70     	; 0x288 <playNote+0xea>
        case 22: shift = 6; octave = 2; break;
     242:	c2 e0       	ldi	r28, 0x02	; 2
     244:	16 e0       	ldi	r17, 0x06	; 6
     246:	20 c0       	rjmp	.+64     	; 0x288 <playNote+0xea>
		case 23: shift = 7; octave = 2; break;
     248:	c2 e0       	ldi	r28, 0x02	; 2
     24a:	17 e0       	ldi	r17, 0x07	; 7
     24c:	1d c0       	rjmp	.+58     	; 0x288 <playNote+0xea>
		case 24: shift = 0; octave = 3; break;
     24e:	c3 e0       	ldi	r28, 0x03	; 3
     250:	10 e0       	ldi	r17, 0x00	; 0
     252:	1a c0       	rjmp	.+52     	; 0x288 <playNote+0xea>
		case 25: shift = 1; octave = 3; break;
     254:	c3 e0       	ldi	r28, 0x03	; 3
     256:	11 e0       	ldi	r17, 0x01	; 1
     258:	17 c0       	rjmp	.+46     	; 0x288 <playNote+0xea>
		case 26: shift = 2; octave = 3; break;
     25a:	c3 e0       	ldi	r28, 0x03	; 3
     25c:	12 e0       	ldi	r17, 0x02	; 2
     25e:	14 c0       	rjmp	.+40     	; 0x288 <playNote+0xea>
		case 27: shift = 3; octave = 3; break;
     260:	c3 e0       	ldi	r28, 0x03	; 3
     262:	13 e0       	ldi	r17, 0x03	; 3
     264:	11 c0       	rjmp	.+34     	; 0x288 <playNote+0xea>
		case 28: shift = 4; octave = 3; break;
     266:	c3 e0       	ldi	r28, 0x03	; 3
     268:	14 e0       	ldi	r17, 0x04	; 4
     26a:	0e c0       	rjmp	.+28     	; 0x288 <playNote+0xea>
		case 29: shift = 5; octave = 3; break;
     26c:	c3 e0       	ldi	r28, 0x03	; 3
     26e:	15 e0       	ldi	r17, 0x05	; 5
     270:	0b c0       	rjmp	.+22     	; 0x288 <playNote+0xea>
		case 30: shift = 6; octave = 3; break;
     272:	c3 e0       	ldi	r28, 0x03	; 3
     274:	16 e0       	ldi	r17, 0x06	; 6
     276:	08 c0       	rjmp	.+16     	; 0x288 <playNote+0xea>
		case 31: shift = 7; octave = 3; break;
     278:	c3 e0       	ldi	r28, 0x03	; 3
     27a:	17 e0       	ldi	r17, 0x07	; 7
     27c:	05 c0       	rjmp	.+10     	; 0x288 <playNote+0xea>
		case 32: shift = 10; octave = 10; break;
     27e:	ca e0       	ldi	r28, 0x0A	; 10
     280:	1a e0       	ldi	r17, 0x0A	; 10
     282:	02 c0       	rjmp	.+4      	; 0x288 <playNote+0xea>
	char shift;
	char octave;
	
	switch(note){
		case 0: shift = 0; octave = 0; break;
		case 1: shift = 1; octave = 0; break;
     284:	c0 e0       	ldi	r28, 0x00	; 0
     286:	11 e0       	ldi	r17, 0x01	; 1
		case 32: shift = 10; octave = 10; break;
		default: shift = 0; octave = 0;
	
	}
	
	float n = ((60000.0 / BPM) / 4) * noteDuration; // Calculate total duration in milliseconds
     288:	9b 01       	movw	r18, r22
     28a:	ac 01       	movw	r20, r24
     28c:	60 e0       	ldi	r22, 0x00	; 0
     28e:	70 e6       	ldi	r23, 0x60	; 96
     290:	8a e6       	ldi	r24, 0x6A	; 106
     292:	97 e4       	ldi	r25, 0x47	; 71
     294:	0e 94 28 14 	call	0x2850	; 0x2850 <__divsf3>
     298:	20 e0       	ldi	r18, 0x00	; 0
     29a:	30 e0       	ldi	r19, 0x00	; 0
     29c:	40 e8       	ldi	r20, 0x80	; 128
     29e:	5e e3       	ldi	r21, 0x3E	; 62
     2a0:	0e 94 57 15 	call	0x2aae	; 0x2aae <__mulsf3>
     2a4:	6b 01       	movw	r12, r22
     2a6:	7c 01       	movw	r14, r24
     2a8:	6d 2f       	mov	r22, r29
     2aa:	70 e0       	ldi	r23, 0x00	; 0
     2ac:	80 e0       	ldi	r24, 0x00	; 0
     2ae:	90 e0       	ldi	r25, 0x00	; 0
     2b0:	0e 94 cb 14 	call	0x2996	; 0x2996 <__floatsisf>
     2b4:	a7 01       	movw	r20, r14
     2b6:	96 01       	movw	r18, r12
     2b8:	0e 94 57 15 	call	0x2aae	; 0x2aae <__mulsf3>
     2bc:	6b 01       	movw	r12, r22
     2be:	7c 01       	movw	r14, r24
	PORTD |= (1<<(octave+3));
     2c0:	4b b1       	in	r20, 0x0b	; 11
     2c2:	2c 2f       	mov	r18, r28
     2c4:	30 e0       	ldi	r19, 0x00	; 0
     2c6:	2d 5f       	subi	r18, 0xFD	; 253
     2c8:	3f 4f       	sbci	r19, 0xFF	; 255
     2ca:	81 e0       	ldi	r24, 0x01	; 1
     2cc:	90 e0       	ldi	r25, 0x00	; 0
     2ce:	ec 01       	movw	r28, r24
     2d0:	02 c0       	rjmp	.+4      	; 0x2d6 <playNote+0x138>
     2d2:	cc 0f       	add	r28, r28
     2d4:	dd 1f       	adc	r29, r29
     2d6:	2a 95       	dec	r18
     2d8:	e2 f7       	brpl	.-8      	; 0x2d2 <playNote+0x134>
     2da:	9c 2f       	mov	r25, r28
     2dc:	94 2b       	or	r25, r20
     2de:	9b b9       	out	0x0b, r25	; 11
	shiftRegisterDisplay(1<<shift);
     2e0:	01 c0       	rjmp	.+2      	; 0x2e4 <playNote+0x146>
     2e2:	88 0f       	add	r24, r24
     2e4:	1a 95       	dec	r17
     2e6:	ea f7       	brpl	.-6      	; 0x2e2 <playNote+0x144>
     2e8:	0e 94 bd 00 	call	0x17a	; 0x17a <shiftRegisterDisplay>
	custom_delay_ms(n/2); // hey dont remove the delay - spencer
     2ec:	20 e0       	ldi	r18, 0x00	; 0
     2ee:	30 e0       	ldi	r19, 0x00	; 0
     2f0:	40 e0       	ldi	r20, 0x00	; 0
     2f2:	5f e3       	ldi	r21, 0x3F	; 63
     2f4:	c7 01       	movw	r24, r14
     2f6:	b6 01       	movw	r22, r12
     2f8:	0e 94 57 15 	call	0x2aae	; 0x2aae <__mulsf3>
     2fc:	0e 94 9a 14 	call	0x2934	; 0x2934 <__fixunssfsi>
     300:	6b 01       	movw	r12, r22
     302:	7c 01       	movw	r14, r24
     304:	cb 01       	movw	r24, r22
     306:	0e 94 73 00 	call	0xe6	; 0xe6 <custom_delay_ms>
	PORTD &=~(1<<(octave+3));
     30a:	8b b1       	in	r24, 0x0b	; 11
     30c:	c0 95       	com	r28
     30e:	c8 23       	and	r28, r24
     310:	cb b9       	out	0x0b, r28	; 11
	shiftRegisterDisplay(0);
     312:	80 e0       	ldi	r24, 0x00	; 0
     314:	0e 94 bd 00 	call	0x17a	; 0x17a <shiftRegisterDisplay>
	custom_delay_ms(n/2);
     318:	c6 01       	movw	r24, r12
     31a:	0e 94 73 00 	call	0xe6	; 0xe6 <custom_delay_ms>
	}
     31e:	df 91       	pop	r29
     320:	cf 91       	pop	r28
     322:	1f 91       	pop	r17
     324:	ff 90       	pop	r15
     326:	ef 90       	pop	r14
     328:	df 90       	pop	r13
     32a:	cf 90       	pop	r12
     32c:	08 95       	ret

0000032e <OdeToJoy>:
	
void OdeToJoy(float BPM) {
     32e:	cf 92       	push	r12
     330:	df 92       	push	r13
     332:	ef 92       	push	r14
     334:	ff 92       	push	r15
     336:	6b 01       	movw	r12, r22
     338:	7c 01       	movw	r14, r24
	playNote(BPM,QUARTER,7);
     33a:	27 e0       	ldi	r18, 0x07	; 7
     33c:	40 91 02 01 	lds	r20, 0x0102	; 0x800102 <QUARTER>
     340:	0e 94 cf 00 	call	0x19e	; 0x19e <playNote>
	playNote(BPM,QUARTER,8);
     344:	28 e0       	ldi	r18, 0x08	; 8
     346:	40 91 02 01 	lds	r20, 0x0102	; 0x800102 <QUARTER>
     34a:	c7 01       	movw	r24, r14
     34c:	b6 01       	movw	r22, r12
     34e:	0e 94 cf 00 	call	0x19e	; 0x19e <playNote>
	playNote(BPM,QUARTER,10);
     352:	2a e0       	ldi	r18, 0x0A	; 10
     354:	40 91 02 01 	lds	r20, 0x0102	; 0x800102 <QUARTER>
     358:	c7 01       	movw	r24, r14
     35a:	b6 01       	movw	r22, r12
     35c:	0e 94 cf 00 	call	0x19e	; 0x19e <playNote>

	playNote(BPM,QUARTER,10);
     360:	2a e0       	ldi	r18, 0x0A	; 10
     362:	40 91 02 01 	lds	r20, 0x0102	; 0x800102 <QUARTER>
     366:	c7 01       	movw	r24, r14
     368:	b6 01       	movw	r22, r12
     36a:	0e 94 cf 00 	call	0x19e	; 0x19e <playNote>
	playNote(BPM,QUARTER,8);
     36e:	28 e0       	ldi	r18, 0x08	; 8
     370:	40 91 02 01 	lds	r20, 0x0102	; 0x800102 <QUARTER>
     374:	c7 01       	movw	r24, r14
     376:	b6 01       	movw	r22, r12
     378:	0e 94 cf 00 	call	0x19e	; 0x19e <playNote>
	playNote(BPM,QUARTER,7);
     37c:	27 e0       	ldi	r18, 0x07	; 7
     37e:	40 91 02 01 	lds	r20, 0x0102	; 0x800102 <QUARTER>
     382:	c7 01       	movw	r24, r14
     384:	b6 01       	movw	r22, r12
     386:	0e 94 cf 00 	call	0x19e	; 0x19e <playNote>
	playNote(BPM,QUARTER,5);
     38a:	25 e0       	ldi	r18, 0x05	; 5
     38c:	40 91 02 01 	lds	r20, 0x0102	; 0x800102 <QUARTER>
     390:	c7 01       	movw	r24, r14
     392:	b6 01       	movw	r22, r12
     394:	0e 94 cf 00 	call	0x19e	; 0x19e <playNote>

	playNote(BPM,QUARTER,3);
     398:	23 e0       	ldi	r18, 0x03	; 3
     39a:	40 91 02 01 	lds	r20, 0x0102	; 0x800102 <QUARTER>
     39e:	c7 01       	movw	r24, r14
     3a0:	b6 01       	movw	r22, r12
     3a2:	0e 94 cf 00 	call	0x19e	; 0x19e <playNote>
	playNote(BPM,QUARTER,3);
     3a6:	23 e0       	ldi	r18, 0x03	; 3
     3a8:	40 91 02 01 	lds	r20, 0x0102	; 0x800102 <QUARTER>
     3ac:	c7 01       	movw	r24, r14
     3ae:	b6 01       	movw	r22, r12
     3b0:	0e 94 cf 00 	call	0x19e	; 0x19e <playNote>
	playNote(BPM,QUARTER,5);
     3b4:	25 e0       	ldi	r18, 0x05	; 5
     3b6:	40 91 02 01 	lds	r20, 0x0102	; 0x800102 <QUARTER>
     3ba:	c7 01       	movw	r24, r14
     3bc:	b6 01       	movw	r22, r12
     3be:	0e 94 cf 00 	call	0x19e	; 0x19e <playNote>
	playNote(BPM,QUARTER,7);
     3c2:	27 e0       	ldi	r18, 0x07	; 7
     3c4:	40 91 02 01 	lds	r20, 0x0102	; 0x800102 <QUARTER>
     3c8:	c7 01       	movw	r24, r14
     3ca:	b6 01       	movw	r22, r12
     3cc:	0e 94 cf 00 	call	0x19e	; 0x19e <playNote>

	playNote(BPM,QUARTER+EIGHT,7);
     3d0:	40 91 02 01 	lds	r20, 0x0102	; 0x800102 <QUARTER>
     3d4:	80 91 01 01 	lds	r24, 0x0101	; 0x800101 <EIGHT>
     3d8:	48 0f       	add	r20, r24
     3da:	27 e0       	ldi	r18, 0x07	; 7
     3dc:	c7 01       	movw	r24, r14
     3de:	b6 01       	movw	r22, r12
     3e0:	0e 94 cf 00 	call	0x19e	; 0x19e <playNote>
	playNote(BPM,EIGHT,5);
     3e4:	25 e0       	ldi	r18, 0x05	; 5
     3e6:	40 91 01 01 	lds	r20, 0x0101	; 0x800101 <EIGHT>
     3ea:	c7 01       	movw	r24, r14
     3ec:	b6 01       	movw	r22, r12
     3ee:	0e 94 cf 00 	call	0x19e	; 0x19e <playNote>
	playNote(BPM,QUARTER+QUARTER,5);
     3f2:	40 91 02 01 	lds	r20, 0x0102	; 0x800102 <QUARTER>
     3f6:	44 0f       	add	r20, r20
     3f8:	25 e0       	ldi	r18, 0x05	; 5
     3fa:	c7 01       	movw	r24, r14
     3fc:	b6 01       	movw	r22, r12
     3fe:	0e 94 cf 00 	call	0x19e	; 0x19e <playNote>

	playNote(BPM,QUARTER,7);
     402:	27 e0       	ldi	r18, 0x07	; 7
     404:	40 91 02 01 	lds	r20, 0x0102	; 0x800102 <QUARTER>
     408:	c7 01       	movw	r24, r14
     40a:	b6 01       	movw	r22, r12
     40c:	0e 94 cf 00 	call	0x19e	; 0x19e <playNote>
	playNote(BPM,QUARTER,7);
     410:	27 e0       	ldi	r18, 0x07	; 7
     412:	40 91 02 01 	lds	r20, 0x0102	; 0x800102 <QUARTER>
     416:	c7 01       	movw	r24, r14
     418:	b6 01       	movw	r22, r12
     41a:	0e 94 cf 00 	call	0x19e	; 0x19e <playNote>
	playNote(BPM,QUARTER,8);
     41e:	28 e0       	ldi	r18, 0x08	; 8
     420:	40 91 02 01 	lds	r20, 0x0102	; 0x800102 <QUARTER>
     424:	c7 01       	movw	r24, r14
     426:	b6 01       	movw	r22, r12
     428:	0e 94 cf 00 	call	0x19e	; 0x19e <playNote>
	playNote(BPM,QUARTER,10);
     42c:	2a e0       	ldi	r18, 0x0A	; 10
     42e:	40 91 02 01 	lds	r20, 0x0102	; 0x800102 <QUARTER>
     432:	c7 01       	movw	r24, r14
     434:	b6 01       	movw	r22, r12
     436:	0e 94 cf 00 	call	0x19e	; 0x19e <playNote>

	playNote(BPM,QUARTER,10);
     43a:	2a e0       	ldi	r18, 0x0A	; 10
     43c:	40 91 02 01 	lds	r20, 0x0102	; 0x800102 <QUARTER>
     440:	c7 01       	movw	r24, r14
     442:	b6 01       	movw	r22, r12
     444:	0e 94 cf 00 	call	0x19e	; 0x19e <playNote>
	playNote(BPM,QUARTER,8);
     448:	28 e0       	ldi	r18, 0x08	; 8
     44a:	40 91 02 01 	lds	r20, 0x0102	; 0x800102 <QUARTER>
     44e:	c7 01       	movw	r24, r14
     450:	b6 01       	movw	r22, r12
     452:	0e 94 cf 00 	call	0x19e	; 0x19e <playNote>
	playNote(BPM,QUARTER,7);
     456:	27 e0       	ldi	r18, 0x07	; 7
     458:	40 91 02 01 	lds	r20, 0x0102	; 0x800102 <QUARTER>
     45c:	c7 01       	movw	r24, r14
     45e:	b6 01       	movw	r22, r12
     460:	0e 94 cf 00 	call	0x19e	; 0x19e <playNote>
	playNote(BPM,QUARTER,5);
     464:	25 e0       	ldi	r18, 0x05	; 5
     466:	40 91 02 01 	lds	r20, 0x0102	; 0x800102 <QUARTER>
     46a:	c7 01       	movw	r24, r14
     46c:	b6 01       	movw	r22, r12
     46e:	0e 94 cf 00 	call	0x19e	; 0x19e <playNote>

	playNote(BPM,QUARTER,3);
     472:	23 e0       	ldi	r18, 0x03	; 3
     474:	40 91 02 01 	lds	r20, 0x0102	; 0x800102 <QUARTER>
     478:	c7 01       	movw	r24, r14
     47a:	b6 01       	movw	r22, r12
     47c:	0e 94 cf 00 	call	0x19e	; 0x19e <playNote>
	playNote(BPM,QUARTER,3);
     480:	23 e0       	ldi	r18, 0x03	; 3
     482:	40 91 02 01 	lds	r20, 0x0102	; 0x800102 <QUARTER>
     486:	c7 01       	movw	r24, r14
     488:	b6 01       	movw	r22, r12
     48a:	0e 94 cf 00 	call	0x19e	; 0x19e <playNote>
	playNote(BPM,QUARTER,5);
     48e:	25 e0       	ldi	r18, 0x05	; 5
     490:	40 91 02 01 	lds	r20, 0x0102	; 0x800102 <QUARTER>
     494:	c7 01       	movw	r24, r14
     496:	b6 01       	movw	r22, r12
     498:	0e 94 cf 00 	call	0x19e	; 0x19e <playNote>
	playNote(BPM,QUARTER,7);
     49c:	27 e0       	ldi	r18, 0x07	; 7
     49e:	40 91 02 01 	lds	r20, 0x0102	; 0x800102 <QUARTER>
     4a2:	c7 01       	movw	r24, r14
     4a4:	b6 01       	movw	r22, r12
     4a6:	0e 94 cf 00 	call	0x19e	; 0x19e <playNote>

	playNote(BPM,QUARTER+EIGHT,5);
     4aa:	40 91 02 01 	lds	r20, 0x0102	; 0x800102 <QUARTER>
     4ae:	80 91 01 01 	lds	r24, 0x0101	; 0x800101 <EIGHT>
     4b2:	48 0f       	add	r20, r24
     4b4:	25 e0       	ldi	r18, 0x05	; 5
     4b6:	c7 01       	movw	r24, r14
     4b8:	b6 01       	movw	r22, r12
     4ba:	0e 94 cf 00 	call	0x19e	; 0x19e <playNote>
	playNote(BPM,EIGHT,3);
     4be:	23 e0       	ldi	r18, 0x03	; 3
     4c0:	40 91 01 01 	lds	r20, 0x0101	; 0x800101 <EIGHT>
     4c4:	c7 01       	movw	r24, r14
     4c6:	b6 01       	movw	r22, r12
     4c8:	0e 94 cf 00 	call	0x19e	; 0x19e <playNote>
	playNote(BPM,QUARTER+QUARTER,3);
     4cc:	40 91 02 01 	lds	r20, 0x0102	; 0x800102 <QUARTER>
     4d0:	44 0f       	add	r20, r20
     4d2:	23 e0       	ldi	r18, 0x03	; 3
     4d4:	c7 01       	movw	r24, r14
     4d6:	b6 01       	movw	r22, r12
     4d8:	0e 94 cf 00 	call	0x19e	; 0x19e <playNote>

	playNote(BPM,QUARTER,5);
     4dc:	25 e0       	ldi	r18, 0x05	; 5
     4de:	40 91 02 01 	lds	r20, 0x0102	; 0x800102 <QUARTER>
     4e2:	c7 01       	movw	r24, r14
     4e4:	b6 01       	movw	r22, r12
     4e6:	0e 94 cf 00 	call	0x19e	; 0x19e <playNote>
	playNote(BPM,QUARTER,5);
     4ea:	25 e0       	ldi	r18, 0x05	; 5
     4ec:	40 91 02 01 	lds	r20, 0x0102	; 0x800102 <QUARTER>
     4f0:	c7 01       	movw	r24, r14
     4f2:	b6 01       	movw	r22, r12
     4f4:	0e 94 cf 00 	call	0x19e	; 0x19e <playNote>
	playNote(BPM,QUARTER,7);
     4f8:	27 e0       	ldi	r18, 0x07	; 7
     4fa:	40 91 02 01 	lds	r20, 0x0102	; 0x800102 <QUARTER>
     4fe:	c7 01       	movw	r24, r14
     500:	b6 01       	movw	r22, r12
     502:	0e 94 cf 00 	call	0x19e	; 0x19e <playNote>
	playNote(BPM,QUARTER,3);
     506:	23 e0       	ldi	r18, 0x03	; 3
     508:	40 91 02 01 	lds	r20, 0x0102	; 0x800102 <QUARTER>
     50c:	c7 01       	movw	r24, r14
     50e:	b6 01       	movw	r22, r12
     510:	0e 94 cf 00 	call	0x19e	; 0x19e <playNote>

	playNote(BPM,QUARTER,5);
     514:	25 e0       	ldi	r18, 0x05	; 5
     516:	40 91 02 01 	lds	r20, 0x0102	; 0x800102 <QUARTER>
     51a:	c7 01       	movw	r24, r14
     51c:	b6 01       	movw	r22, r12
     51e:	0e 94 cf 00 	call	0x19e	; 0x19e <playNote>
	playNote(BPM,EIGHT,7);
     522:	27 e0       	ldi	r18, 0x07	; 7
     524:	40 91 01 01 	lds	r20, 0x0101	; 0x800101 <EIGHT>
     528:	c7 01       	movw	r24, r14
     52a:	b6 01       	movw	r22, r12
     52c:	0e 94 cf 00 	call	0x19e	; 0x19e <playNote>
	playNote(BPM,EIGHT,8);
     530:	28 e0       	ldi	r18, 0x08	; 8
     532:	40 91 01 01 	lds	r20, 0x0101	; 0x800101 <EIGHT>
     536:	c7 01       	movw	r24, r14
     538:	b6 01       	movw	r22, r12
     53a:	0e 94 cf 00 	call	0x19e	; 0x19e <playNote>
	playNote(BPM,QUARTER,7);
     53e:	27 e0       	ldi	r18, 0x07	; 7
     540:	40 91 02 01 	lds	r20, 0x0102	; 0x800102 <QUARTER>
     544:	c7 01       	movw	r24, r14
     546:	b6 01       	movw	r22, r12
     548:	0e 94 cf 00 	call	0x19e	; 0x19e <playNote>
	playNote(BPM,QUARTER,3);
     54c:	23 e0       	ldi	r18, 0x03	; 3
     54e:	40 91 02 01 	lds	r20, 0x0102	; 0x800102 <QUARTER>
     552:	c7 01       	movw	r24, r14
     554:	b6 01       	movw	r22, r12
     556:	0e 94 cf 00 	call	0x19e	; 0x19e <playNote>

	playNote(BPM,QUARTER,5);
     55a:	25 e0       	ldi	r18, 0x05	; 5
     55c:	40 91 02 01 	lds	r20, 0x0102	; 0x800102 <QUARTER>
     560:	c7 01       	movw	r24, r14
     562:	b6 01       	movw	r22, r12
     564:	0e 94 cf 00 	call	0x19e	; 0x19e <playNote>
	playNote(BPM,EIGHT,7);
     568:	27 e0       	ldi	r18, 0x07	; 7
     56a:	40 91 01 01 	lds	r20, 0x0101	; 0x800101 <EIGHT>
     56e:	c7 01       	movw	r24, r14
     570:	b6 01       	movw	r22, r12
     572:	0e 94 cf 00 	call	0x19e	; 0x19e <playNote>
	playNote(BPM,EIGHT,8);
     576:	28 e0       	ldi	r18, 0x08	; 8
     578:	40 91 01 01 	lds	r20, 0x0101	; 0x800101 <EIGHT>
     57c:	c7 01       	movw	r24, r14
     57e:	b6 01       	movw	r22, r12
     580:	0e 94 cf 00 	call	0x19e	; 0x19e <playNote>
	playNote(BPM,QUARTER,7);
     584:	27 e0       	ldi	r18, 0x07	; 7
     586:	40 91 02 01 	lds	r20, 0x0102	; 0x800102 <QUARTER>
     58a:	c7 01       	movw	r24, r14
     58c:	b6 01       	movw	r22, r12
     58e:	0e 94 cf 00 	call	0x19e	; 0x19e <playNote>
	playNote(BPM,QUARTER,5);
     592:	25 e0       	ldi	r18, 0x05	; 5
     594:	40 91 02 01 	lds	r20, 0x0102	; 0x800102 <QUARTER>
     598:	c7 01       	movw	r24, r14
     59a:	b6 01       	movw	r22, r12
     59c:	0e 94 cf 00 	call	0x19e	; 0x19e <playNote>

	playNote(BPM,QUARTER,3);
     5a0:	23 e0       	ldi	r18, 0x03	; 3
     5a2:	40 91 02 01 	lds	r20, 0x0102	; 0x800102 <QUARTER>
     5a6:	c7 01       	movw	r24, r14
     5a8:	b6 01       	movw	r22, r12
     5aa:	0e 94 cf 00 	call	0x19e	; 0x19e <playNote>
	playNote(BPM,QUARTER,5);
     5ae:	25 e0       	ldi	r18, 0x05	; 5
     5b0:	40 91 02 01 	lds	r20, 0x0102	; 0x800102 <QUARTER>
     5b4:	c7 01       	movw	r24, r14
     5b6:	b6 01       	movw	r22, r12
     5b8:	0e 94 cf 00 	call	0x19e	; 0x19e <playNote>
	playNote(BPM,QUARTER+QUARTER,10);
     5bc:	40 91 02 01 	lds	r20, 0x0102	; 0x800102 <QUARTER>
     5c0:	44 0f       	add	r20, r20
     5c2:	2a e0       	ldi	r18, 0x0A	; 10
     5c4:	c7 01       	movw	r24, r14
     5c6:	b6 01       	movw	r22, r12
     5c8:	0e 94 cf 00 	call	0x19e	; 0x19e <playNote>

	playNote(BPM,QUARTER,7);
     5cc:	27 e0       	ldi	r18, 0x07	; 7
     5ce:	40 91 02 01 	lds	r20, 0x0102	; 0x800102 <QUARTER>
     5d2:	c7 01       	movw	r24, r14
     5d4:	b6 01       	movw	r22, r12
     5d6:	0e 94 cf 00 	call	0x19e	; 0x19e <playNote>
	playNote(BPM,QUARTER,7);
     5da:	27 e0       	ldi	r18, 0x07	; 7
     5dc:	40 91 02 01 	lds	r20, 0x0102	; 0x800102 <QUARTER>
     5e0:	c7 01       	movw	r24, r14
     5e2:	b6 01       	movw	r22, r12
     5e4:	0e 94 cf 00 	call	0x19e	; 0x19e <playNote>
	playNote(BPM,QUARTER,8);
     5e8:	28 e0       	ldi	r18, 0x08	; 8
     5ea:	40 91 02 01 	lds	r20, 0x0102	; 0x800102 <QUARTER>
     5ee:	c7 01       	movw	r24, r14
     5f0:	b6 01       	movw	r22, r12
     5f2:	0e 94 cf 00 	call	0x19e	; 0x19e <playNote>
	playNote(BPM,QUARTER,10);
     5f6:	2a e0       	ldi	r18, 0x0A	; 10
     5f8:	40 91 02 01 	lds	r20, 0x0102	; 0x800102 <QUARTER>
     5fc:	c7 01       	movw	r24, r14
     5fe:	b6 01       	movw	r22, r12
     600:	0e 94 cf 00 	call	0x19e	; 0x19e <playNote>

	playNote(BPM,QUARTER,10);
     604:	2a e0       	ldi	r18, 0x0A	; 10
     606:	40 91 02 01 	lds	r20, 0x0102	; 0x800102 <QUARTER>
     60a:	c7 01       	movw	r24, r14
     60c:	b6 01       	movw	r22, r12
     60e:	0e 94 cf 00 	call	0x19e	; 0x19e <playNote>
	playNote(BPM,QUARTER,8);
     612:	28 e0       	ldi	r18, 0x08	; 8
     614:	40 91 02 01 	lds	r20, 0x0102	; 0x800102 <QUARTER>
     618:	c7 01       	movw	r24, r14
     61a:	b6 01       	movw	r22, r12
     61c:	0e 94 cf 00 	call	0x19e	; 0x19e <playNote>
	playNote(BPM,QUARTER,7);
     620:	27 e0       	ldi	r18, 0x07	; 7
     622:	40 91 02 01 	lds	r20, 0x0102	; 0x800102 <QUARTER>
     626:	c7 01       	movw	r24, r14
     628:	b6 01       	movw	r22, r12
     62a:	0e 94 cf 00 	call	0x19e	; 0x19e <playNote>
	playNote(BPM,QUARTER,5);
     62e:	25 e0       	ldi	r18, 0x05	; 5
     630:	40 91 02 01 	lds	r20, 0x0102	; 0x800102 <QUARTER>
     634:	c7 01       	movw	r24, r14
     636:	b6 01       	movw	r22, r12
     638:	0e 94 cf 00 	call	0x19e	; 0x19e <playNote>

	playNote(BPM,QUARTER,3);
     63c:	23 e0       	ldi	r18, 0x03	; 3
     63e:	40 91 02 01 	lds	r20, 0x0102	; 0x800102 <QUARTER>
     642:	c7 01       	movw	r24, r14
     644:	b6 01       	movw	r22, r12
     646:	0e 94 cf 00 	call	0x19e	; 0x19e <playNote>
	playNote(BPM,QUARTER,3);
     64a:	23 e0       	ldi	r18, 0x03	; 3
     64c:	40 91 02 01 	lds	r20, 0x0102	; 0x800102 <QUARTER>
     650:	c7 01       	movw	r24, r14
     652:	b6 01       	movw	r22, r12
     654:	0e 94 cf 00 	call	0x19e	; 0x19e <playNote>
	playNote(BPM,QUARTER,5);
     658:	25 e0       	ldi	r18, 0x05	; 5
     65a:	40 91 02 01 	lds	r20, 0x0102	; 0x800102 <QUARTER>
     65e:	c7 01       	movw	r24, r14
     660:	b6 01       	movw	r22, r12
     662:	0e 94 cf 00 	call	0x19e	; 0x19e <playNote>
	playNote(BPM,QUARTER,7);
     666:	27 e0       	ldi	r18, 0x07	; 7
     668:	40 91 02 01 	lds	r20, 0x0102	; 0x800102 <QUARTER>
     66c:	c7 01       	movw	r24, r14
     66e:	b6 01       	movw	r22, r12
     670:	0e 94 cf 00 	call	0x19e	; 0x19e <playNote>

	playNote(BPM,QUARTER+EIGHT,5);
     674:	40 91 02 01 	lds	r20, 0x0102	; 0x800102 <QUARTER>
     678:	80 91 01 01 	lds	r24, 0x0101	; 0x800101 <EIGHT>
     67c:	48 0f       	add	r20, r24
     67e:	25 e0       	ldi	r18, 0x05	; 5
     680:	c7 01       	movw	r24, r14
     682:	b6 01       	movw	r22, r12
     684:	0e 94 cf 00 	call	0x19e	; 0x19e <playNote>
	playNote(BPM,EIGHT,3);
     688:	23 e0       	ldi	r18, 0x03	; 3
     68a:	40 91 01 01 	lds	r20, 0x0101	; 0x800101 <EIGHT>
     68e:	c7 01       	movw	r24, r14
     690:	b6 01       	movw	r22, r12
     692:	0e 94 cf 00 	call	0x19e	; 0x19e <playNote>
	playNote(BPM,QUARTER+QUARTER,3);
     696:	40 91 02 01 	lds	r20, 0x0102	; 0x800102 <QUARTER>
     69a:	44 0f       	add	r20, r20
     69c:	23 e0       	ldi	r18, 0x03	; 3
     69e:	c7 01       	movw	r24, r14
     6a0:	b6 01       	movw	r22, r12
     6a2:	0e 94 cf 00 	call	0x19e	; 0x19e <playNote>

	
	
}
     6a6:	ff 90       	pop	r15
     6a8:	ef 90       	pop	r14
     6aa:	df 90       	pop	r13
     6ac:	cf 90       	pop	r12
     6ae:	08 95       	ret

000006b0 <FurElise>:

void FurElise(float BPM) {
     6b0:	cf 92       	push	r12
     6b2:	df 92       	push	r13
     6b4:	ef 92       	push	r14
     6b6:	ff 92       	push	r15
     6b8:	6b 01       	movw	r12, r22
     6ba:	7c 01       	movw	r14, r24
	playNote(BPM,EIGHT,24);
     6bc:	28 e1       	ldi	r18, 0x18	; 24
     6be:	40 91 01 01 	lds	r20, 0x0101	; 0x800101 <EIGHT>
     6c2:	0e 94 cf 00 	call	0x19e	; 0x19e <playNote>
	playNote(BPM,EIGHT,23);
     6c6:	27 e1       	ldi	r18, 0x17	; 23
     6c8:	40 91 01 01 	lds	r20, 0x0101	; 0x800101 <EIGHT>
     6cc:	c7 01       	movw	r24, r14
     6ce:	b6 01       	movw	r22, r12
     6d0:	0e 94 cf 00 	call	0x19e	; 0x19e <playNote>
	
	playNote(BPM,EIGHT,24);
     6d4:	28 e1       	ldi	r18, 0x18	; 24
     6d6:	40 91 01 01 	lds	r20, 0x0101	; 0x800101 <EIGHT>
     6da:	c7 01       	movw	r24, r14
     6dc:	b6 01       	movw	r22, r12
     6de:	0e 94 cf 00 	call	0x19e	; 0x19e <playNote>
	playNote(BPM,EIGHT,23);
     6e2:	27 e1       	ldi	r18, 0x17	; 23
     6e4:	40 91 01 01 	lds	r20, 0x0101	; 0x800101 <EIGHT>
     6e8:	c7 01       	movw	r24, r14
     6ea:	b6 01       	movw	r22, r12
     6ec:	0e 94 cf 00 	call	0x19e	; 0x19e <playNote>
	playNote(BPM,EIGHT,24);
     6f0:	28 e1       	ldi	r18, 0x18	; 24
     6f2:	40 91 01 01 	lds	r20, 0x0101	; 0x800101 <EIGHT>
     6f6:	c7 01       	movw	r24, r14
     6f8:	b6 01       	movw	r22, r12
     6fa:	0e 94 cf 00 	call	0x19e	; 0x19e <playNote>
	playNote(BPM,EIGHT,19);
     6fe:	23 e1       	ldi	r18, 0x13	; 19
     700:	40 91 01 01 	lds	r20, 0x0101	; 0x800101 <EIGHT>
     704:	c7 01       	movw	r24, r14
     706:	b6 01       	movw	r22, r12
     708:	0e 94 cf 00 	call	0x19e	; 0x19e <playNote>
	playNote(BPM,EIGHT,22);
     70c:	26 e1       	ldi	r18, 0x16	; 22
     70e:	40 91 01 01 	lds	r20, 0x0101	; 0x800101 <EIGHT>
     712:	c7 01       	movw	r24, r14
     714:	b6 01       	movw	r22, r12
     716:	0e 94 cf 00 	call	0x19e	; 0x19e <playNote>
	playNote(BPM,EIGHT,20);
     71a:	24 e1       	ldi	r18, 0x14	; 20
     71c:	40 91 01 01 	lds	r20, 0x0101	; 0x800101 <EIGHT>
     720:	c7 01       	movw	r24, r14
     722:	b6 01       	movw	r22, r12
     724:	0e 94 cf 00 	call	0x19e	; 0x19e <playNote>

	playNote(BPM,EIGHT,17);
     728:	21 e1       	ldi	r18, 0x11	; 17
     72a:	40 91 01 01 	lds	r20, 0x0101	; 0x800101 <EIGHT>
     72e:	c7 01       	movw	r24, r14
     730:	b6 01       	movw	r22, r12
     732:	0e 94 cf 00 	call	0x19e	; 0x19e <playNote>
	playNote(BPM,QUARTER,32);
     736:	20 e2       	ldi	r18, 0x20	; 32
     738:	40 91 02 01 	lds	r20, 0x0102	; 0x800102 <QUARTER>
     73c:	c7 01       	movw	r24, r14
     73e:	b6 01       	movw	r22, r12
     740:	0e 94 cf 00 	call	0x19e	; 0x19e <playNote>
	playNote(BPM,EIGHT,8);
     744:	28 e0       	ldi	r18, 0x08	; 8
     746:	40 91 01 01 	lds	r20, 0x0101	; 0x800101 <EIGHT>
     74a:	c7 01       	movw	r24, r14
     74c:	b6 01       	movw	r22, r12
     74e:	0e 94 cf 00 	call	0x19e	; 0x19e <playNote>
	playNote(BPM,EIGHT,12);
     752:	2c e0       	ldi	r18, 0x0C	; 12
     754:	40 91 01 01 	lds	r20, 0x0101	; 0x800101 <EIGHT>
     758:	c7 01       	movw	r24, r14
     75a:	b6 01       	movw	r22, r12
     75c:	0e 94 cf 00 	call	0x19e	; 0x19e <playNote>
	playNote(BPM,EIGHT,17);
     760:	21 e1       	ldi	r18, 0x11	; 17
     762:	40 91 01 01 	lds	r20, 0x0101	; 0x800101 <EIGHT>
     766:	c7 01       	movw	r24, r14
     768:	b6 01       	movw	r22, r12
     76a:	0e 94 cf 00 	call	0x19e	; 0x19e <playNote>
	
	playNote(BPM,EIGHT,19);
     76e:	23 e1       	ldi	r18, 0x13	; 19
     770:	40 91 01 01 	lds	r20, 0x0101	; 0x800101 <EIGHT>
     774:	c7 01       	movw	r24, r14
     776:	b6 01       	movw	r22, r12
     778:	0e 94 cf 00 	call	0x19e	; 0x19e <playNote>
	playNote(BPM,QUARTER,32);
     77c:	20 e2       	ldi	r18, 0x20	; 32
     77e:	40 91 02 01 	lds	r20, 0x0102	; 0x800102 <QUARTER>
     782:	c7 01       	movw	r24, r14
     784:	b6 01       	movw	r22, r12
     786:	0e 94 cf 00 	call	0x19e	; 0x19e <playNote>
	playNote(BPM,EIGHT,12);
     78a:	2c e0       	ldi	r18, 0x0C	; 12
     78c:	40 91 01 01 	lds	r20, 0x0101	; 0x800101 <EIGHT>
     790:	c7 01       	movw	r24, r14
     792:	b6 01       	movw	r22, r12
     794:	0e 94 cf 00 	call	0x19e	; 0x19e <playNote>
	playNote(BPM,EIGHT,16);
     798:	20 e1       	ldi	r18, 0x10	; 16
     79a:	40 91 01 01 	lds	r20, 0x0101	; 0x800101 <EIGHT>
     79e:	c7 01       	movw	r24, r14
     7a0:	b6 01       	movw	r22, r12
     7a2:	0e 94 cf 00 	call	0x19e	; 0x19e <playNote>
	playNote(BPM,EIGHT,19);
     7a6:	23 e1       	ldi	r18, 0x13	; 19
     7a8:	40 91 01 01 	lds	r20, 0x0101	; 0x800101 <EIGHT>
     7ac:	c7 01       	movw	r24, r14
     7ae:	b6 01       	movw	r22, r12
     7b0:	0e 94 cf 00 	call	0x19e	; 0x19e <playNote>
	
	playNote(BPM,EIGHT,20);
     7b4:	24 e1       	ldi	r18, 0x14	; 20
     7b6:	40 91 01 01 	lds	r20, 0x0101	; 0x800101 <EIGHT>
     7ba:	c7 01       	movw	r24, r14
     7bc:	b6 01       	movw	r22, r12
     7be:	0e 94 cf 00 	call	0x19e	; 0x19e <playNote>
	playNote(BPM,QUARTER,32);
     7c2:	20 e2       	ldi	r18, 0x20	; 32
     7c4:	40 91 02 01 	lds	r20, 0x0102	; 0x800102 <QUARTER>
     7c8:	c7 01       	movw	r24, r14
     7ca:	b6 01       	movw	r22, r12
     7cc:	0e 94 cf 00 	call	0x19e	; 0x19e <playNote>
	playNote(BPM,EIGHT,12);
     7d0:	2c e0       	ldi	r18, 0x0C	; 12
     7d2:	40 91 01 01 	lds	r20, 0x0101	; 0x800101 <EIGHT>
     7d6:	c7 01       	movw	r24, r14
     7d8:	b6 01       	movw	r22, r12
     7da:	0e 94 cf 00 	call	0x19e	; 0x19e <playNote>
	playNote(BPM,EIGHT,24);
     7de:	28 e1       	ldi	r18, 0x18	; 24
     7e0:	40 91 01 01 	lds	r20, 0x0101	; 0x800101 <EIGHT>
     7e4:	c7 01       	movw	r24, r14
     7e6:	b6 01       	movw	r22, r12
     7e8:	0e 94 cf 00 	call	0x19e	; 0x19e <playNote>
	playNote(BPM,EIGHT,23);
     7ec:	27 e1       	ldi	r18, 0x17	; 23
     7ee:	40 91 01 01 	lds	r20, 0x0101	; 0x800101 <EIGHT>
     7f2:	c7 01       	movw	r24, r14
     7f4:	b6 01       	movw	r22, r12
     7f6:	0e 94 cf 00 	call	0x19e	; 0x19e <playNote>
	
	playNote(BPM,EIGHT,24);
     7fa:	28 e1       	ldi	r18, 0x18	; 24
     7fc:	40 91 01 01 	lds	r20, 0x0101	; 0x800101 <EIGHT>
     800:	c7 01       	movw	r24, r14
     802:	b6 01       	movw	r22, r12
     804:	0e 94 cf 00 	call	0x19e	; 0x19e <playNote>
	playNote(BPM,EIGHT,23);
     808:	27 e1       	ldi	r18, 0x17	; 23
     80a:	40 91 01 01 	lds	r20, 0x0101	; 0x800101 <EIGHT>
     80e:	c7 01       	movw	r24, r14
     810:	b6 01       	movw	r22, r12
     812:	0e 94 cf 00 	call	0x19e	; 0x19e <playNote>
	playNote(BPM,EIGHT,24);
     816:	28 e1       	ldi	r18, 0x18	; 24
     818:	40 91 01 01 	lds	r20, 0x0101	; 0x800101 <EIGHT>
     81c:	c7 01       	movw	r24, r14
     81e:	b6 01       	movw	r22, r12
     820:	0e 94 cf 00 	call	0x19e	; 0x19e <playNote>
	playNote(BPM,EIGHT,19);
     824:	23 e1       	ldi	r18, 0x13	; 19
     826:	40 91 01 01 	lds	r20, 0x0101	; 0x800101 <EIGHT>
     82a:	c7 01       	movw	r24, r14
     82c:	b6 01       	movw	r22, r12
     82e:	0e 94 cf 00 	call	0x19e	; 0x19e <playNote>
	playNote(BPM,EIGHT,22);
     832:	26 e1       	ldi	r18, 0x16	; 22
     834:	40 91 01 01 	lds	r20, 0x0101	; 0x800101 <EIGHT>
     838:	c7 01       	movw	r24, r14
     83a:	b6 01       	movw	r22, r12
     83c:	0e 94 cf 00 	call	0x19e	; 0x19e <playNote>
	playNote(BPM,EIGHT,20);
     840:	24 e1       	ldi	r18, 0x14	; 20
     842:	40 91 01 01 	lds	r20, 0x0101	; 0x800101 <EIGHT>
     846:	c7 01       	movw	r24, r14
     848:	b6 01       	movw	r22, r12
     84a:	0e 94 cf 00 	call	0x19e	; 0x19e <playNote>
	
	playNote(BPM,EIGHT,17);
     84e:	21 e1       	ldi	r18, 0x11	; 17
     850:	40 91 01 01 	lds	r20, 0x0101	; 0x800101 <EIGHT>
     854:	c7 01       	movw	r24, r14
     856:	b6 01       	movw	r22, r12
     858:	0e 94 cf 00 	call	0x19e	; 0x19e <playNote>
	playNote(BPM,QUARTER,32);
     85c:	20 e2       	ldi	r18, 0x20	; 32
     85e:	40 91 02 01 	lds	r20, 0x0102	; 0x800102 <QUARTER>
     862:	c7 01       	movw	r24, r14
     864:	b6 01       	movw	r22, r12
     866:	0e 94 cf 00 	call	0x19e	; 0x19e <playNote>
	playNote(BPM,EIGHT,8);
     86a:	28 e0       	ldi	r18, 0x08	; 8
     86c:	40 91 01 01 	lds	r20, 0x0101	; 0x800101 <EIGHT>
     870:	c7 01       	movw	r24, r14
     872:	b6 01       	movw	r22, r12
     874:	0e 94 cf 00 	call	0x19e	; 0x19e <playNote>
	playNote(BPM,EIGHT,12);
     878:	2c e0       	ldi	r18, 0x0C	; 12
     87a:	40 91 01 01 	lds	r20, 0x0101	; 0x800101 <EIGHT>
     87e:	c7 01       	movw	r24, r14
     880:	b6 01       	movw	r22, r12
     882:	0e 94 cf 00 	call	0x19e	; 0x19e <playNote>
	playNote(BPM,EIGHT,17);
     886:	21 e1       	ldi	r18, 0x11	; 17
     888:	40 91 01 01 	lds	r20, 0x0101	; 0x800101 <EIGHT>
     88c:	c7 01       	movw	r24, r14
     88e:	b6 01       	movw	r22, r12
     890:	0e 94 cf 00 	call	0x19e	; 0x19e <playNote>
	
	playNote(BPM,EIGHT,19);
     894:	23 e1       	ldi	r18, 0x13	; 19
     896:	40 91 01 01 	lds	r20, 0x0101	; 0x800101 <EIGHT>
     89a:	c7 01       	movw	r24, r14
     89c:	b6 01       	movw	r22, r12
     89e:	0e 94 cf 00 	call	0x19e	; 0x19e <playNote>
	playNote(BPM,QUARTER,32);
     8a2:	20 e2       	ldi	r18, 0x20	; 32
     8a4:	40 91 02 01 	lds	r20, 0x0102	; 0x800102 <QUARTER>
     8a8:	c7 01       	movw	r24, r14
     8aa:	b6 01       	movw	r22, r12
     8ac:	0e 94 cf 00 	call	0x19e	; 0x19e <playNote>
	playNote(BPM,EIGHT,12);
     8b0:	2c e0       	ldi	r18, 0x0C	; 12
     8b2:	40 91 01 01 	lds	r20, 0x0101	; 0x800101 <EIGHT>
     8b6:	c7 01       	movw	r24, r14
     8b8:	b6 01       	movw	r22, r12
     8ba:	0e 94 cf 00 	call	0x19e	; 0x19e <playNote>
	playNote(BPM,EIGHT,20);
     8be:	24 e1       	ldi	r18, 0x14	; 20
     8c0:	40 91 01 01 	lds	r20, 0x0101	; 0x800101 <EIGHT>
     8c4:	c7 01       	movw	r24, r14
     8c6:	b6 01       	movw	r22, r12
     8c8:	0e 94 cf 00 	call	0x19e	; 0x19e <playNote>
	playNote(BPM,EIGHT,19);
     8cc:	23 e1       	ldi	r18, 0x13	; 19
     8ce:	40 91 01 01 	lds	r20, 0x0101	; 0x800101 <EIGHT>
     8d2:	c7 01       	movw	r24, r14
     8d4:	b6 01       	movw	r22, r12
     8d6:	0e 94 cf 00 	call	0x19e	; 0x19e <playNote>
	
	playNote(BPM,EIGHT,17);
     8da:	21 e1       	ldi	r18, 0x11	; 17
     8dc:	40 91 01 01 	lds	r20, 0x0101	; 0x800101 <EIGHT>
     8e0:	c7 01       	movw	r24, r14
     8e2:	b6 01       	movw	r22, r12
     8e4:	0e 94 cf 00 	call	0x19e	; 0x19e <playNote>
	playNote(BPM,QUARTER,32);
     8e8:	20 e2       	ldi	r18, 0x20	; 32
     8ea:	40 91 02 01 	lds	r20, 0x0102	; 0x800102 <QUARTER>
     8ee:	c7 01       	movw	r24, r14
     8f0:	b6 01       	movw	r22, r12
     8f2:	0e 94 cf 00 	call	0x19e	; 0x19e <playNote>
	playNote(BPM,EIGHT,19);
     8f6:	23 e1       	ldi	r18, 0x13	; 19
     8f8:	40 91 01 01 	lds	r20, 0x0101	; 0x800101 <EIGHT>
     8fc:	c7 01       	movw	r24, r14
     8fe:	b6 01       	movw	r22, r12
     900:	0e 94 cf 00 	call	0x19e	; 0x19e <playNote>
	playNote(BPM,EIGHT,20);
     904:	24 e1       	ldi	r18, 0x14	; 20
     906:	40 91 01 01 	lds	r20, 0x0101	; 0x800101 <EIGHT>
     90a:	c7 01       	movw	r24, r14
     90c:	b6 01       	movw	r22, r12
     90e:	0e 94 cf 00 	call	0x19e	; 0x19e <playNote>
	playNote(BPM,EIGHT,22);
     912:	26 e1       	ldi	r18, 0x16	; 22
     914:	40 91 01 01 	lds	r20, 0x0101	; 0x800101 <EIGHT>
     918:	c7 01       	movw	r24, r14
     91a:	b6 01       	movw	r22, r12
     91c:	0e 94 cf 00 	call	0x19e	; 0x19e <playNote>
	
	playNote(BPM,EIGHT,24);
     920:	28 e1       	ldi	r18, 0x18	; 24
     922:	40 91 01 01 	lds	r20, 0x0101	; 0x800101 <EIGHT>
     926:	c7 01       	movw	r24, r14
     928:	b6 01       	movw	r22, r12
     92a:	0e 94 cf 00 	call	0x19e	; 0x19e <playNote>
	playNote(BPM,QUARTER,32);
     92e:	20 e2       	ldi	r18, 0x20	; 32
     930:	40 91 02 01 	lds	r20, 0x0102	; 0x800102 <QUARTER>
     934:	c7 01       	movw	r24, r14
     936:	b6 01       	movw	r22, r12
     938:	0e 94 cf 00 	call	0x19e	; 0x19e <playNote>
	playNote(BPM,EIGHT,15);
     93c:	2f e0       	ldi	r18, 0x0F	; 15
     93e:	40 91 01 01 	lds	r20, 0x0101	; 0x800101 <EIGHT>
     942:	c7 01       	movw	r24, r14
     944:	b6 01       	movw	r22, r12
     946:	0e 94 cf 00 	call	0x19e	; 0x19e <playNote>
	playNote(BPM,EIGHT,25);
     94a:	29 e1       	ldi	r18, 0x19	; 25
     94c:	40 91 01 01 	lds	r20, 0x0101	; 0x800101 <EIGHT>
     950:	c7 01       	movw	r24, r14
     952:	b6 01       	movw	r22, r12
     954:	0e 94 cf 00 	call	0x19e	; 0x19e <playNote>
	playNote(BPM,EIGHT,24);
     958:	28 e1       	ldi	r18, 0x18	; 24
     95a:	40 91 01 01 	lds	r20, 0x0101	; 0x800101 <EIGHT>
     95e:	c7 01       	movw	r24, r14
     960:	b6 01       	movw	r22, r12
     962:	0e 94 cf 00 	call	0x19e	; 0x19e <playNote>
	
	playNote(BPM,EIGHT,22);
     966:	26 e1       	ldi	r18, 0x16	; 22
     968:	40 91 01 01 	lds	r20, 0x0101	; 0x800101 <EIGHT>
     96c:	c7 01       	movw	r24, r14
     96e:	b6 01       	movw	r22, r12
     970:	0e 94 cf 00 	call	0x19e	; 0x19e <playNote>
	playNote(BPM,QUARTER,32);
     974:	20 e2       	ldi	r18, 0x20	; 32
     976:	40 91 02 01 	lds	r20, 0x0102	; 0x800102 <QUARTER>
     97a:	c7 01       	movw	r24, r14
     97c:	b6 01       	movw	r22, r12
     97e:	0e 94 cf 00 	call	0x19e	; 0x19e <playNote>
	playNote(BPM,EIGHT,13);
     982:	2d e0       	ldi	r18, 0x0D	; 13
     984:	40 91 01 01 	lds	r20, 0x0101	; 0x800101 <EIGHT>
     988:	c7 01       	movw	r24, r14
     98a:	b6 01       	movw	r22, r12
     98c:	0e 94 cf 00 	call	0x19e	; 0x19e <playNote>
	playNote(BPM,EIGHT,24);
     990:	28 e1       	ldi	r18, 0x18	; 24
     992:	40 91 01 01 	lds	r20, 0x0101	; 0x800101 <EIGHT>
     996:	c7 01       	movw	r24, r14
     998:	b6 01       	movw	r22, r12
     99a:	0e 94 cf 00 	call	0x19e	; 0x19e <playNote>
	playNote(BPM,EIGHT,22);
     99e:	26 e1       	ldi	r18, 0x16	; 22
     9a0:	40 91 01 01 	lds	r20, 0x0101	; 0x800101 <EIGHT>
     9a4:	c7 01       	movw	r24, r14
     9a6:	b6 01       	movw	r22, r12
     9a8:	0e 94 cf 00 	call	0x19e	; 0x19e <playNote>
	
	playNote(BPM,EIGHT,20);
     9ac:	24 e1       	ldi	r18, 0x14	; 20
     9ae:	40 91 01 01 	lds	r20, 0x0101	; 0x800101 <EIGHT>
     9b2:	c7 01       	movw	r24, r14
     9b4:	b6 01       	movw	r22, r12
     9b6:	0e 94 cf 00 	call	0x19e	; 0x19e <playNote>
	playNote(BPM,QUARTER,32);
     9ba:	20 e2       	ldi	r18, 0x20	; 32
     9bc:	40 91 02 01 	lds	r20, 0x0102	; 0x800102 <QUARTER>
     9c0:	c7 01       	movw	r24, r14
     9c2:	b6 01       	movw	r22, r12
     9c4:	0e 94 cf 00 	call	0x19e	; 0x19e <playNote>
	playNote(BPM,EIGHT,12);
     9c8:	2c e0       	ldi	r18, 0x0C	; 12
     9ca:	40 91 01 01 	lds	r20, 0x0101	; 0x800101 <EIGHT>
     9ce:	c7 01       	movw	r24, r14
     9d0:	b6 01       	movw	r22, r12
     9d2:	0e 94 cf 00 	call	0x19e	; 0x19e <playNote>
	playNote(BPM,EIGHT,22);
     9d6:	26 e1       	ldi	r18, 0x16	; 22
     9d8:	40 91 01 01 	lds	r20, 0x0101	; 0x800101 <EIGHT>
     9dc:	c7 01       	movw	r24, r14
     9de:	b6 01       	movw	r22, r12
     9e0:	0e 94 cf 00 	call	0x19e	; 0x19e <playNote>
	playNote(BPM,EIGHT,20);
     9e4:	24 e1       	ldi	r18, 0x14	; 20
     9e6:	40 91 01 01 	lds	r20, 0x0101	; 0x800101 <EIGHT>
     9ea:	c7 01       	movw	r24, r14
     9ec:	b6 01       	movw	r22, r12
     9ee:	0e 94 cf 00 	call	0x19e	; 0x19e <playNote>
	
	
	playNote(BPM,EIGHT,19);
     9f2:	23 e1       	ldi	r18, 0x13	; 19
     9f4:	40 91 01 01 	lds	r20, 0x0101	; 0x800101 <EIGHT>
     9f8:	c7 01       	movw	r24, r14
     9fa:	b6 01       	movw	r22, r12
     9fc:	0e 94 cf 00 	call	0x19e	; 0x19e <playNote>
	playNote(BPM,EIGHT,32);
     a00:	20 e2       	ldi	r18, 0x20	; 32
     a02:	40 91 01 01 	lds	r20, 0x0101	; 0x800101 <EIGHT>
     a06:	c7 01       	movw	r24, r14
     a08:	b6 01       	movw	r22, r12
     a0a:	0e 94 cf 00 	call	0x19e	; 0x19e <playNote>
	playNote(BPM,EIGHT,12);
     a0e:	2c e0       	ldi	r18, 0x0C	; 12
     a10:	40 91 01 01 	lds	r20, 0x0101	; 0x800101 <EIGHT>
     a14:	c7 01       	movw	r24, r14
     a16:	b6 01       	movw	r22, r12
     a18:	0e 94 cf 00 	call	0x19e	; 0x19e <playNote>
	playNote(BPM,EIGHT,24);
     a1c:	28 e1       	ldi	r18, 0x18	; 24
     a1e:	40 91 01 01 	lds	r20, 0x0101	; 0x800101 <EIGHT>
     a22:	c7 01       	movw	r24, r14
     a24:	b6 01       	movw	r22, r12
     a26:	0e 94 cf 00 	call	0x19e	; 0x19e <playNote>
	playNote(BPM,EIGHT,12);
     a2a:	2c e0       	ldi	r18, 0x0C	; 12
     a2c:	40 91 01 01 	lds	r20, 0x0101	; 0x800101 <EIGHT>
     a30:	c7 01       	movw	r24, r14
     a32:	b6 01       	movw	r22, r12
     a34:	0e 94 cf 00 	call	0x19e	; 0x19e <playNote>
	playNote(BPM,EIGHT,24);
     a38:	28 e1       	ldi	r18, 0x18	; 24
     a3a:	40 91 01 01 	lds	r20, 0x0101	; 0x800101 <EIGHT>
     a3e:	c7 01       	movw	r24, r14
     a40:	b6 01       	movw	r22, r12
     a42:	0e 94 cf 00 	call	0x19e	; 0x19e <playNote>
	playNote(BPM,EIGHT,12);
     a46:	2c e0       	ldi	r18, 0x0C	; 12
     a48:	40 91 01 01 	lds	r20, 0x0101	; 0x800101 <EIGHT>
     a4c:	c7 01       	movw	r24, r14
     a4e:	b6 01       	movw	r22, r12
     a50:	0e 94 cf 00 	call	0x19e	; 0x19e <playNote>
	playNote(BPM,EIGHT,24);
     a54:	28 e1       	ldi	r18, 0x18	; 24
     a56:	40 91 01 01 	lds	r20, 0x0101	; 0x800101 <EIGHT>
     a5a:	c7 01       	movw	r24, r14
     a5c:	b6 01       	movw	r22, r12
     a5e:	0e 94 cf 00 	call	0x19e	; 0x19e <playNote>
	playNote(BPM,EIGHT,12);
     a62:	2c e0       	ldi	r18, 0x0C	; 12
     a64:	40 91 01 01 	lds	r20, 0x0101	; 0x800101 <EIGHT>
     a68:	c7 01       	movw	r24, r14
     a6a:	b6 01       	movw	r22, r12
     a6c:	0e 94 cf 00 	call	0x19e	; 0x19e <playNote>
	playNote(BPM,EIGHT,24);
     a70:	28 e1       	ldi	r18, 0x18	; 24
     a72:	40 91 01 01 	lds	r20, 0x0101	; 0x800101 <EIGHT>
     a76:	c7 01       	movw	r24, r14
     a78:	b6 01       	movw	r22, r12
     a7a:	0e 94 cf 00 	call	0x19e	; 0x19e <playNote>
	playNote(BPM,EIGHT,12);
     a7e:	2c e0       	ldi	r18, 0x0C	; 12
     a80:	40 91 01 01 	lds	r20, 0x0101	; 0x800101 <EIGHT>
     a84:	c7 01       	movw	r24, r14
     a86:	b6 01       	movw	r22, r12
     a88:	0e 94 cf 00 	call	0x19e	; 0x19e <playNote>
	playNote(BPM,EIGHT,32);
     a8c:	20 e2       	ldi	r18, 0x20	; 32
     a8e:	40 91 01 01 	lds	r20, 0x0101	; 0x800101 <EIGHT>
     a92:	c7 01       	movw	r24, r14
     a94:	b6 01       	movw	r22, r12
     a96:	0e 94 cf 00 	call	0x19e	; 0x19e <playNote>
	
	playNote(BPM,EIGHT,24);
     a9a:	28 e1       	ldi	r18, 0x18	; 24
     a9c:	40 91 01 01 	lds	r20, 0x0101	; 0x800101 <EIGHT>
     aa0:	c7 01       	movw	r24, r14
     aa2:	b6 01       	movw	r22, r12
     aa4:	0e 94 cf 00 	call	0x19e	; 0x19e <playNote>
	playNote(BPM,EIGHT,23);
     aa8:	27 e1       	ldi	r18, 0x17	; 23
     aaa:	40 91 01 01 	lds	r20, 0x0101	; 0x800101 <EIGHT>
     aae:	c7 01       	movw	r24, r14
     ab0:	b6 01       	movw	r22, r12
     ab2:	0e 94 cf 00 	call	0x19e	; 0x19e <playNote>
	playNote(BPM,EIGHT,24);
     ab6:	28 e1       	ldi	r18, 0x18	; 24
     ab8:	40 91 01 01 	lds	r20, 0x0101	; 0x800101 <EIGHT>
     abc:	c7 01       	movw	r24, r14
     abe:	b6 01       	movw	r22, r12
     ac0:	0e 94 cf 00 	call	0x19e	; 0x19e <playNote>
	playNote(BPM,EIGHT,23);
     ac4:	27 e1       	ldi	r18, 0x17	; 23
     ac6:	40 91 01 01 	lds	r20, 0x0101	; 0x800101 <EIGHT>
     aca:	c7 01       	movw	r24, r14
     acc:	b6 01       	movw	r22, r12
     ace:	0e 94 cf 00 	call	0x19e	; 0x19e <playNote>
	playNote(BPM,EIGHT,24);
     ad2:	28 e1       	ldi	r18, 0x18	; 24
     ad4:	40 91 01 01 	lds	r20, 0x0101	; 0x800101 <EIGHT>
     ad8:	c7 01       	movw	r24, r14
     ada:	b6 01       	movw	r22, r12
     adc:	0e 94 cf 00 	call	0x19e	; 0x19e <playNote>
	
	playNote(BPM,SIXTEENTH,23);
     ae0:	27 e1       	ldi	r18, 0x17	; 23
     ae2:	40 91 00 01 	lds	r20, 0x0100	; 0x800100 <__DATA_REGION_ORIGIN__>
     ae6:	c7 01       	movw	r24, r14
     ae8:	b6 01       	movw	r22, r12
     aea:	0e 94 cf 00 	call	0x19e	; 0x19e <playNote>
	playNote(BPM,SIXTEENTH,24);
     aee:	28 e1       	ldi	r18, 0x18	; 24
     af0:	40 91 00 01 	lds	r20, 0x0100	; 0x800100 <__DATA_REGION_ORIGIN__>
     af4:	c7 01       	movw	r24, r14
     af6:	b6 01       	movw	r22, r12
     af8:	0e 94 cf 00 	call	0x19e	; 0x19e <playNote>
	playNote(BPM,SIXTEENTH,23);
     afc:	27 e1       	ldi	r18, 0x17	; 23
     afe:	40 91 00 01 	lds	r20, 0x0100	; 0x800100 <__DATA_REGION_ORIGIN__>
     b02:	c7 01       	movw	r24, r14
     b04:	b6 01       	movw	r22, r12
     b06:	0e 94 cf 00 	call	0x19e	; 0x19e <playNote>
	playNote(BPM,SIXTEENTH,24);
     b0a:	28 e1       	ldi	r18, 0x18	; 24
     b0c:	40 91 00 01 	lds	r20, 0x0100	; 0x800100 <__DATA_REGION_ORIGIN__>
     b10:	c7 01       	movw	r24, r14
     b12:	b6 01       	movw	r22, r12
     b14:	0e 94 cf 00 	call	0x19e	; 0x19e <playNote>
	playNote(BPM,SIXTEENTH,23);
     b18:	27 e1       	ldi	r18, 0x17	; 23
     b1a:	40 91 00 01 	lds	r20, 0x0100	; 0x800100 <__DATA_REGION_ORIGIN__>
     b1e:	c7 01       	movw	r24, r14
     b20:	b6 01       	movw	r22, r12
     b22:	0e 94 cf 00 	call	0x19e	; 0x19e <playNote>
	playNote(BPM,SIXTEENTH,24);
     b26:	28 e1       	ldi	r18, 0x18	; 24
     b28:	40 91 00 01 	lds	r20, 0x0100	; 0x800100 <__DATA_REGION_ORIGIN__>
     b2c:	c7 01       	movw	r24, r14
     b2e:	b6 01       	movw	r22, r12
     b30:	0e 94 cf 00 	call	0x19e	; 0x19e <playNote>
	playNote(BPM,SIXTEENTH,23);
     b34:	27 e1       	ldi	r18, 0x17	; 23
     b36:	40 91 00 01 	lds	r20, 0x0100	; 0x800100 <__DATA_REGION_ORIGIN__>
     b3a:	c7 01       	movw	r24, r14
     b3c:	b6 01       	movw	r22, r12
     b3e:	0e 94 cf 00 	call	0x19e	; 0x19e <playNote>
	playNote(BPM,SIXTEENTH,24);
     b42:	28 e1       	ldi	r18, 0x18	; 24
     b44:	40 91 00 01 	lds	r20, 0x0100	; 0x800100 <__DATA_REGION_ORIGIN__>
     b48:	c7 01       	movw	r24, r14
     b4a:	b6 01       	movw	r22, r12
     b4c:	0e 94 cf 00 	call	0x19e	; 0x19e <playNote>
	playNote(BPM,SIXTEENTH,23);
     b50:	27 e1       	ldi	r18, 0x17	; 23
     b52:	40 91 00 01 	lds	r20, 0x0100	; 0x800100 <__DATA_REGION_ORIGIN__>
     b56:	c7 01       	movw	r24, r14
     b58:	b6 01       	movw	r22, r12
     b5a:	0e 94 cf 00 	call	0x19e	; 0x19e <playNote>
	playNote(BPM,SIXTEENTH,24);
     b5e:	28 e1       	ldi	r18, 0x18	; 24
     b60:	40 91 00 01 	lds	r20, 0x0100	; 0x800100 <__DATA_REGION_ORIGIN__>
     b64:	c7 01       	movw	r24, r14
     b66:	b6 01       	movw	r22, r12
     b68:	0e 94 cf 00 	call	0x19e	; 0x19e <playNote>
	
	playNote(BPM,QUARTER,19);
     b6c:	23 e1       	ldi	r18, 0x13	; 19
     b6e:	40 91 02 01 	lds	r20, 0x0102	; 0x800102 <QUARTER>
     b72:	c7 01       	movw	r24, r14
     b74:	b6 01       	movw	r22, r12
     b76:	0e 94 cf 00 	call	0x19e	; 0x19e <playNote>
	playNote(BPM,QUARTER,22);
     b7a:	26 e1       	ldi	r18, 0x16	; 22
     b7c:	40 91 02 01 	lds	r20, 0x0102	; 0x800102 <QUARTER>
     b80:	c7 01       	movw	r24, r14
     b82:	b6 01       	movw	r22, r12
     b84:	0e 94 cf 00 	call	0x19e	; 0x19e <playNote>
	playNote(BPM,QUARTER+QUARTER,20);
     b88:	40 91 02 01 	lds	r20, 0x0102	; 0x800102 <QUARTER>
     b8c:	44 0f       	add	r20, r20
     b8e:	24 e1       	ldi	r18, 0x14	; 20
     b90:	c7 01       	movw	r24, r14
     b92:	b6 01       	movw	r22, r12
     b94:	0e 94 cf 00 	call	0x19e	; 0x19e <playNote>
	playNote(BPM,QUARTER+QUARTER,17);
     b98:	40 91 02 01 	lds	r20, 0x0102	; 0x800102 <QUARTER>
     b9c:	44 0f       	add	r20, r20
     b9e:	21 e1       	ldi	r18, 0x11	; 17
     ba0:	c7 01       	movw	r24, r14
     ba2:	b6 01       	movw	r22, r12
     ba4:	0e 94 cf 00 	call	0x19e	; 0x19e <playNote>
	playNote(BPM,QUARTER+QUARTER,5);
     ba8:	40 91 02 01 	lds	r20, 0x0102	; 0x800102 <QUARTER>
     bac:	44 0f       	add	r20, r20
     bae:	25 e0       	ldi	r18, 0x05	; 5
     bb0:	c7 01       	movw	r24, r14
     bb2:	b6 01       	movw	r22, r12
     bb4:	0e 94 cf 00 	call	0x19e	; 0x19e <playNote>
}
     bb8:	ff 90       	pop	r15
     bba:	ef 90       	pop	r14
     bbc:	df 90       	pop	r13
     bbe:	cf 90       	pop	r12
     bc0:	08 95       	ret

00000bc2 <SURPRISE>:
void SURPRISE(float BPM){
     bc2:	cf 92       	push	r12
     bc4:	df 92       	push	r13
     bc6:	ef 92       	push	r14
     bc8:	ff 92       	push	r15
     bca:	6b 01       	movw	r12, r22
     bcc:	7c 01       	movw	r14, r24
	playNote(BPM,QUARTER,8);
     bce:	28 e0       	ldi	r18, 0x08	; 8
     bd0:	40 91 02 01 	lds	r20, 0x0102	; 0x800102 <QUARTER>
     bd4:	0e 94 cf 00 	call	0x19e	; 0x19e <playNote>
	
	playNote(BPM,QUARTER,13);
     bd8:	2d e0       	ldi	r18, 0x0D	; 13
     bda:	40 91 02 01 	lds	r20, 0x0102	; 0x800102 <QUARTER>
     bde:	c7 01       	movw	r24, r14
     be0:	b6 01       	movw	r22, r12
     be2:	0e 94 cf 00 	call	0x19e	; 0x19e <playNote>
	playNote(BPM,EIGHT,13);
     be6:	2d e0       	ldi	r18, 0x0D	; 13
     be8:	40 91 01 01 	lds	r20, 0x0101	; 0x800101 <EIGHT>
     bec:	c7 01       	movw	r24, r14
     bee:	b6 01       	movw	r22, r12
     bf0:	0e 94 cf 00 	call	0x19e	; 0x19e <playNote>
	playNote(BPM,EIGHT,13);
     bf4:	2d e0       	ldi	r18, 0x0D	; 13
     bf6:	40 91 01 01 	lds	r20, 0x0101	; 0x800101 <EIGHT>
     bfa:	c7 01       	movw	r24, r14
     bfc:	b6 01       	movw	r22, r12
     bfe:	0e 94 cf 00 	call	0x19e	; 0x19e <playNote>
	playNote(BPM,QUARTER,8);
     c02:	28 e0       	ldi	r18, 0x08	; 8
     c04:	40 91 02 01 	lds	r20, 0x0102	; 0x800102 <QUARTER>
     c08:	c7 01       	movw	r24, r14
     c0a:	b6 01       	movw	r22, r12
     c0c:	0e 94 cf 00 	call	0x19e	; 0x19e <playNote>
	playNote(BPM,QUARTER,8);
     c10:	28 e0       	ldi	r18, 0x08	; 8
     c12:	40 91 02 01 	lds	r20, 0x0102	; 0x800102 <QUARTER>
     c16:	c7 01       	movw	r24, r14
     c18:	b6 01       	movw	r22, r12
     c1a:	0e 94 cf 00 	call	0x19e	; 0x19e <playNote>
	
	playNote(BPM,EIGHT,6);
     c1e:	26 e0       	ldi	r18, 0x06	; 6
     c20:	40 91 01 01 	lds	r20, 0x0101	; 0x800101 <EIGHT>
     c24:	c7 01       	movw	r24, r14
     c26:	b6 01       	movw	r22, r12
     c28:	0e 94 cf 00 	call	0x19e	; 0x19e <playNote>
	playNote(BPM,QUARTER,6);
     c2c:	26 e0       	ldi	r18, 0x06	; 6
     c2e:	40 91 02 01 	lds	r20, 0x0102	; 0x800102 <QUARTER>
     c32:	c7 01       	movw	r24, r14
     c34:	b6 01       	movw	r22, r12
     c36:	0e 94 cf 00 	call	0x19e	; 0x19e <playNote>
	playNote(BPM,QUARTER,5);
     c3a:	25 e0       	ldi	r18, 0x05	; 5
     c3c:	40 91 02 01 	lds	r20, 0x0102	; 0x800102 <QUARTER>
     c40:	c7 01       	movw	r24, r14
     c42:	b6 01       	movw	r22, r12
     c44:	0e 94 cf 00 	call	0x19e	; 0x19e <playNote>
	playNote(BPM,EIGHT,5);
     c48:	25 e0       	ldi	r18, 0x05	; 5
     c4a:	40 91 01 01 	lds	r20, 0x0101	; 0x800101 <EIGHT>
     c4e:	c7 01       	movw	r24, r14
     c50:	b6 01       	movw	r22, r12
     c52:	0e 94 cf 00 	call	0x19e	; 0x19e <playNote>
	playNote(BPM,EIGHT,5);
     c56:	25 e0       	ldi	r18, 0x05	; 5
     c58:	40 91 01 01 	lds	r20, 0x0101	; 0x800101 <EIGHT>
     c5c:	c7 01       	movw	r24, r14
     c5e:	b6 01       	movw	r22, r12
     c60:	0e 94 cf 00 	call	0x19e	; 0x19e <playNote>
	playNote(BPM,EIGHT,5);
     c64:	25 e0       	ldi	r18, 0x05	; 5
     c66:	40 91 01 01 	lds	r20, 0x0101	; 0x800101 <EIGHT>
     c6a:	c7 01       	movw	r24, r14
     c6c:	b6 01       	movw	r22, r12
     c6e:	0e 94 cf 00 	call	0x19e	; 0x19e <playNote>
	
	playNote(BPM,QUARTER,5);
     c72:	25 e0       	ldi	r18, 0x05	; 5
     c74:	40 91 02 01 	lds	r20, 0x0102	; 0x800102 <QUARTER>
     c78:	c7 01       	movw	r24, r14
     c7a:	b6 01       	movw	r22, r12
     c7c:	0e 94 cf 00 	call	0x19e	; 0x19e <playNote>
	playNote(BPM,EIGHT,5);
     c80:	25 e0       	ldi	r18, 0x05	; 5
     c82:	40 91 01 01 	lds	r20, 0x0101	; 0x800101 <EIGHT>
     c86:	c7 01       	movw	r24, r14
     c88:	b6 01       	movw	r22, r12
     c8a:	0e 94 cf 00 	call	0x19e	; 0x19e <playNote>
	playNote(BPM,EIGHT,5);
     c8e:	25 e0       	ldi	r18, 0x05	; 5
     c90:	40 91 01 01 	lds	r20, 0x0101	; 0x800101 <EIGHT>
     c94:	c7 01       	movw	r24, r14
     c96:	b6 01       	movw	r22, r12
     c98:	0e 94 cf 00 	call	0x19e	; 0x19e <playNote>
	playNote(BPM,QUARTER,5);
     c9c:	25 e0       	ldi	r18, 0x05	; 5
     c9e:	40 91 02 01 	lds	r20, 0x0102	; 0x800102 <QUARTER>
     ca2:	c7 01       	movw	r24, r14
     ca4:	b6 01       	movw	r22, r12
     ca6:	0e 94 cf 00 	call	0x19e	; 0x19e <playNote>
	playNote(BPM,EIGHT,1);
     caa:	21 e0       	ldi	r18, 0x01	; 1
     cac:	40 91 01 01 	lds	r20, 0x0101	; 0x800101 <EIGHT>
     cb0:	c7 01       	movw	r24, r14
     cb2:	b6 01       	movw	r22, r12
     cb4:	0e 94 cf 00 	call	0x19e	; 0x19e <playNote>
	playNote(BPM,QUARTER+EIGHT,3);
     cb8:	40 91 02 01 	lds	r20, 0x0102	; 0x800102 <QUARTER>
     cbc:	80 91 01 01 	lds	r24, 0x0101	; 0x800101 <EIGHT>
     cc0:	48 0f       	add	r20, r24
     cc2:	23 e0       	ldi	r18, 0x03	; 3
     cc4:	c7 01       	movw	r24, r14
     cc6:	b6 01       	movw	r22, r12
     cc8:	0e 94 cf 00 	call	0x19e	; 0x19e <playNote>
	
	playNote(BPM,QUARTER,32);
     ccc:	20 e2       	ldi	r18, 0x20	; 32
     cce:	40 91 02 01 	lds	r20, 0x0102	; 0x800102 <QUARTER>
     cd2:	c7 01       	movw	r24, r14
     cd4:	b6 01       	movw	r22, r12
     cd6:	0e 94 cf 00 	call	0x19e	; 0x19e <playNote>
	
	playNote(BPM,EIGHT,13);
     cda:	2d e0       	ldi	r18, 0x0D	; 13
     cdc:	40 91 01 01 	lds	r20, 0x0101	; 0x800101 <EIGHT>
     ce0:	c7 01       	movw	r24, r14
     ce2:	b6 01       	movw	r22, r12
     ce4:	0e 94 cf 00 	call	0x19e	; 0x19e <playNote>
	playNote(BPM,EIGHT,13);
     ce8:	2d e0       	ldi	r18, 0x0D	; 13
     cea:	40 91 01 01 	lds	r20, 0x0101	; 0x800101 <EIGHT>
     cee:	c7 01       	movw	r24, r14
     cf0:	b6 01       	movw	r22, r12
     cf2:	0e 94 cf 00 	call	0x19e	; 0x19e <playNote>
	playNote(BPM,EIGHT,13);
     cf6:	2d e0       	ldi	r18, 0x0D	; 13
     cf8:	40 91 01 01 	lds	r20, 0x0101	; 0x800101 <EIGHT>
     cfc:	c7 01       	movw	r24, r14
     cfe:	b6 01       	movw	r22, r12
     d00:	0e 94 cf 00 	call	0x19e	; 0x19e <playNote>
	playNote(BPM,EIGHT,13);
     d04:	2d e0       	ldi	r18, 0x0D	; 13
     d06:	40 91 01 01 	lds	r20, 0x0101	; 0x800101 <EIGHT>
     d0a:	c7 01       	movw	r24, r14
     d0c:	b6 01       	movw	r22, r12
     d0e:	0e 94 cf 00 	call	0x19e	; 0x19e <playNote>
	playNote(BPM,QUARTER,8);
     d12:	28 e0       	ldi	r18, 0x08	; 8
     d14:	40 91 02 01 	lds	r20, 0x0102	; 0x800102 <QUARTER>
     d18:	c7 01       	movw	r24, r14
     d1a:	b6 01       	movw	r22, r12
     d1c:	0e 94 cf 00 	call	0x19e	; 0x19e <playNote>
	playNote(BPM,QUARTER,8);
     d20:	28 e0       	ldi	r18, 0x08	; 8
     d22:	40 91 02 01 	lds	r20, 0x0102	; 0x800102 <QUARTER>
     d26:	c7 01       	movw	r24, r14
     d28:	b6 01       	movw	r22, r12
     d2a:	0e 94 cf 00 	call	0x19e	; 0x19e <playNote>
	
	playNote(BPM,EIGHT,6);
     d2e:	26 e0       	ldi	r18, 0x06	; 6
     d30:	40 91 01 01 	lds	r20, 0x0101	; 0x800101 <EIGHT>
     d34:	c7 01       	movw	r24, r14
     d36:	b6 01       	movw	r22, r12
     d38:	0e 94 cf 00 	call	0x19e	; 0x19e <playNote>
	playNote(BPM,QUARTER,6);
     d3c:	26 e0       	ldi	r18, 0x06	; 6
     d3e:	40 91 02 01 	lds	r20, 0x0102	; 0x800102 <QUARTER>
     d42:	c7 01       	movw	r24, r14
     d44:	b6 01       	movw	r22, r12
     d46:	0e 94 cf 00 	call	0x19e	; 0x19e <playNote>
	playNote(BPM,EIGHT,5);
     d4a:	25 e0       	ldi	r18, 0x05	; 5
     d4c:	40 91 01 01 	lds	r20, 0x0101	; 0x800101 <EIGHT>
     d50:	c7 01       	movw	r24, r14
     d52:	b6 01       	movw	r22, r12
     d54:	0e 94 cf 00 	call	0x19e	; 0x19e <playNote>
	playNote(BPM,QUARTER,32);
     d58:	20 e2       	ldi	r18, 0x20	; 32
     d5a:	40 91 02 01 	lds	r20, 0x0102	; 0x800102 <QUARTER>
     d5e:	c7 01       	movw	r24, r14
     d60:	b6 01       	movw	r22, r12
     d62:	0e 94 cf 00 	call	0x19e	; 0x19e <playNote>
	
	playNote(BPM,EIGHT,5);
     d66:	25 e0       	ldi	r18, 0x05	; 5
     d68:	40 91 01 01 	lds	r20, 0x0101	; 0x800101 <EIGHT>
     d6c:	c7 01       	movw	r24, r14
     d6e:	b6 01       	movw	r22, r12
     d70:	0e 94 cf 00 	call	0x19e	; 0x19e <playNote>
	playNote(BPM,EIGHT,5);
     d74:	25 e0       	ldi	r18, 0x05	; 5
     d76:	40 91 01 01 	lds	r20, 0x0101	; 0x800101 <EIGHT>
     d7a:	c7 01       	movw	r24, r14
     d7c:	b6 01       	movw	r22, r12
     d7e:	0e 94 cf 00 	call	0x19e	; 0x19e <playNote>
	playNote(BPM,QUARTER,5);
     d82:	25 e0       	ldi	r18, 0x05	; 5
     d84:	40 91 02 01 	lds	r20, 0x0102	; 0x800102 <QUARTER>
     d88:	c7 01       	movw	r24, r14
     d8a:	b6 01       	movw	r22, r12
     d8c:	0e 94 cf 00 	call	0x19e	; 0x19e <playNote>
	playNote(BPM,EIGHT,5);
     d90:	25 e0       	ldi	r18, 0x05	; 5
     d92:	40 91 01 01 	lds	r20, 0x0101	; 0x800101 <EIGHT>
     d96:	c7 01       	movw	r24, r14
     d98:	b6 01       	movw	r22, r12
     d9a:	0e 94 cf 00 	call	0x19e	; 0x19e <playNote>
	playNote(BPM,EIGHT,5);
     d9e:	25 e0       	ldi	r18, 0x05	; 5
     da0:	40 91 01 01 	lds	r20, 0x0101	; 0x800101 <EIGHT>
     da4:	c7 01       	movw	r24, r14
     da6:	b6 01       	movw	r22, r12
     da8:	0e 94 cf 00 	call	0x19e	; 0x19e <playNote>
	playNote(BPM,QUARTER,5);
     dac:	25 e0       	ldi	r18, 0x05	; 5
     dae:	40 91 02 01 	lds	r20, 0x0102	; 0x800102 <QUARTER>
     db2:	c7 01       	movw	r24, r14
     db4:	b6 01       	movw	r22, r12
     db6:	0e 94 cf 00 	call	0x19e	; 0x19e <playNote>
	playNote(BPM,EIGHT,1);
     dba:	21 e0       	ldi	r18, 0x01	; 1
     dbc:	40 91 01 01 	lds	r20, 0x0101	; 0x800101 <EIGHT>
     dc0:	c7 01       	movw	r24, r14
     dc2:	b6 01       	movw	r22, r12
     dc4:	0e 94 cf 00 	call	0x19e	; 0x19e <playNote>
	
	
	playNote(BPM,QUARTER,3);
     dc8:	23 e0       	ldi	r18, 0x03	; 3
     dca:	40 91 02 01 	lds	r20, 0x0102	; 0x800102 <QUARTER>
     dce:	c7 01       	movw	r24, r14
     dd0:	b6 01       	movw	r22, r12
     dd2:	0e 94 cf 00 	call	0x19e	; 0x19e <playNote>
	playNote(BPM,QUARTER+QUARTER,32);
     dd6:	40 91 02 01 	lds	r20, 0x0102	; 0x800102 <QUARTER>
     dda:	44 0f       	add	r20, r20
     ddc:	20 e2       	ldi	r18, 0x20	; 32
     dde:	c7 01       	movw	r24, r14
     de0:	b6 01       	movw	r22, r12
     de2:	0e 94 cf 00 	call	0x19e	; 0x19e <playNote>
	
	playNote(BPM,QUARTER,13);
     de6:	2d e0       	ldi	r18, 0x0D	; 13
     de8:	40 91 02 01 	lds	r20, 0x0102	; 0x800102 <QUARTER>
     dec:	c7 01       	movw	r24, r14
     dee:	b6 01       	movw	r22, r12
     df0:	0e 94 cf 00 	call	0x19e	; 0x19e <playNote>
	playNote(BPM,EIGHT,13);
     df4:	2d e0       	ldi	r18, 0x0D	; 13
     df6:	40 91 01 01 	lds	r20, 0x0101	; 0x800101 <EIGHT>
     dfa:	c7 01       	movw	r24, r14
     dfc:	b6 01       	movw	r22, r12
     dfe:	0e 94 cf 00 	call	0x19e	; 0x19e <playNote>
	playNote(BPM,EIGHT,13);
     e02:	2d e0       	ldi	r18, 0x0D	; 13
     e04:	40 91 01 01 	lds	r20, 0x0101	; 0x800101 <EIGHT>
     e08:	c7 01       	movw	r24, r14
     e0a:	b6 01       	movw	r22, r12
     e0c:	0e 94 cf 00 	call	0x19e	; 0x19e <playNote>
	playNote(BPM,QUARTER,13);
     e10:	2d e0       	ldi	r18, 0x0D	; 13
     e12:	40 91 02 01 	lds	r20, 0x0102	; 0x800102 <QUARTER>
     e16:	c7 01       	movw	r24, r14
     e18:	b6 01       	movw	r22, r12
     e1a:	0e 94 cf 00 	call	0x19e	; 0x19e <playNote>
	playNote(BPM,EIGHT,13);
     e1e:	2d e0       	ldi	r18, 0x0D	; 13
     e20:	40 91 01 01 	lds	r20, 0x0101	; 0x800101 <EIGHT>
     e24:	c7 01       	movw	r24, r14
     e26:	b6 01       	movw	r22, r12
     e28:	0e 94 cf 00 	call	0x19e	; 0x19e <playNote>
	playNote(BPM,EIGHT,13);
     e2c:	2d e0       	ldi	r18, 0x0D	; 13
     e2e:	40 91 01 01 	lds	r20, 0x0101	; 0x800101 <EIGHT>
     e32:	c7 01       	movw	r24, r14
     e34:	b6 01       	movw	r22, r12
     e36:	0e 94 cf 00 	call	0x19e	; 0x19e <playNote>
	
	playNote(BPM,QUARTER,12);
     e3a:	2c e0       	ldi	r18, 0x0C	; 12
     e3c:	40 91 02 01 	lds	r20, 0x0102	; 0x800102 <QUARTER>
     e40:	c7 01       	movw	r24, r14
     e42:	b6 01       	movw	r22, r12
     e44:	0e 94 cf 00 	call	0x19e	; 0x19e <playNote>
	playNote(BPM,EIGHT,12);
     e48:	2c e0       	ldi	r18, 0x0C	; 12
     e4a:	40 91 01 01 	lds	r20, 0x0101	; 0x800101 <EIGHT>
     e4e:	c7 01       	movw	r24, r14
     e50:	b6 01       	movw	r22, r12
     e52:	0e 94 cf 00 	call	0x19e	; 0x19e <playNote>
	playNote(BPM,EIGHT,12);
     e56:	2c e0       	ldi	r18, 0x0C	; 12
     e58:	40 91 01 01 	lds	r20, 0x0101	; 0x800101 <EIGHT>
     e5c:	c7 01       	movw	r24, r14
     e5e:	b6 01       	movw	r22, r12
     e60:	0e 94 cf 00 	call	0x19e	; 0x19e <playNote>
	playNote(BPM,QUARTER,12);
     e64:	2c e0       	ldi	r18, 0x0C	; 12
     e66:	40 91 02 01 	lds	r20, 0x0102	; 0x800102 <QUARTER>
     e6a:	c7 01       	movw	r24, r14
     e6c:	b6 01       	movw	r22, r12
     e6e:	0e 94 cf 00 	call	0x19e	; 0x19e <playNote>
	playNote(BPM,EIGHT,13);
     e72:	2d e0       	ldi	r18, 0x0D	; 13
     e74:	40 91 01 01 	lds	r20, 0x0101	; 0x800101 <EIGHT>
     e78:	c7 01       	movw	r24, r14
     e7a:	b6 01       	movw	r22, r12
     e7c:	0e 94 cf 00 	call	0x19e	; 0x19e <playNote>
	playNote(BPM,QUARTER,13);
     e80:	2d e0       	ldi	r18, 0x0D	; 13
     e82:	40 91 02 01 	lds	r20, 0x0102	; 0x800102 <QUARTER>
     e86:	c7 01       	movw	r24, r14
     e88:	b6 01       	movw	r22, r12
     e8a:	0e 94 cf 00 	call	0x19e	; 0x19e <playNote>
	
	playNote(BPM,EIGHT,13);
     e8e:	2d e0       	ldi	r18, 0x0D	; 13
     e90:	40 91 01 01 	lds	r20, 0x0101	; 0x800101 <EIGHT>
     e94:	c7 01       	movw	r24, r14
     e96:	b6 01       	movw	r22, r12
     e98:	0e 94 cf 00 	call	0x19e	; 0x19e <playNote>
	playNote(BPM,EIGHT,13);
     e9c:	2d e0       	ldi	r18, 0x0D	; 13
     e9e:	40 91 01 01 	lds	r20, 0x0101	; 0x800101 <EIGHT>
     ea2:	c7 01       	movw	r24, r14
     ea4:	b6 01       	movw	r22, r12
     ea6:	0e 94 cf 00 	call	0x19e	; 0x19e <playNote>
	playNote(BPM,EIGHT,13);
     eaa:	2d e0       	ldi	r18, 0x0D	; 13
     eac:	40 91 01 01 	lds	r20, 0x0101	; 0x800101 <EIGHT>
     eb0:	c7 01       	movw	r24, r14
     eb2:	b6 01       	movw	r22, r12
     eb4:	0e 94 cf 00 	call	0x19e	; 0x19e <playNote>
	playNote(BPM,QUARTER,13);
     eb8:	2d e0       	ldi	r18, 0x0D	; 13
     eba:	40 91 02 01 	lds	r20, 0x0102	; 0x800102 <QUARTER>
     ebe:	c7 01       	movw	r24, r14
     ec0:	b6 01       	movw	r22, r12
     ec2:	0e 94 cf 00 	call	0x19e	; 0x19e <playNote>
	playNote(BPM,EIGHT,13);
     ec6:	2d e0       	ldi	r18, 0x0D	; 13
     ec8:	40 91 01 01 	lds	r20, 0x0101	; 0x800101 <EIGHT>
     ecc:	c7 01       	movw	r24, r14
     ece:	b6 01       	movw	r22, r12
     ed0:	0e 94 cf 00 	call	0x19e	; 0x19e <playNote>
	playNote(BPM,EIGHT,13);
     ed4:	2d e0       	ldi	r18, 0x0D	; 13
     ed6:	40 91 01 01 	lds	r20, 0x0101	; 0x800101 <EIGHT>
     eda:	c7 01       	movw	r24, r14
     edc:	b6 01       	movw	r22, r12
     ede:	0e 94 cf 00 	call	0x19e	; 0x19e <playNote>
	
	playNote(BPM,EIGHT,12);
     ee2:	2c e0       	ldi	r18, 0x0C	; 12
     ee4:	40 91 01 01 	lds	r20, 0x0101	; 0x800101 <EIGHT>
     ee8:	c7 01       	movw	r24, r14
     eea:	b6 01       	movw	r22, r12
     eec:	0e 94 cf 00 	call	0x19e	; 0x19e <playNote>
	playNote(BPM,EIGHT,12);
     ef0:	2c e0       	ldi	r18, 0x0C	; 12
     ef2:	40 91 01 01 	lds	r20, 0x0101	; 0x800101 <EIGHT>
     ef6:	c7 01       	movw	r24, r14
     ef8:	b6 01       	movw	r22, r12
     efa:	0e 94 cf 00 	call	0x19e	; 0x19e <playNote>
	playNote(BPM,EIGHT,12);
     efe:	2c e0       	ldi	r18, 0x0C	; 12
     f00:	40 91 01 01 	lds	r20, 0x0101	; 0x800101 <EIGHT>
     f04:	c7 01       	movw	r24, r14
     f06:	b6 01       	movw	r22, r12
     f08:	0e 94 cf 00 	call	0x19e	; 0x19e <playNote>
	playNote(BPM,EIGHT,12);
     f0c:	2c e0       	ldi	r18, 0x0C	; 12
     f0e:	40 91 01 01 	lds	r20, 0x0101	; 0x800101 <EIGHT>
     f12:	c7 01       	movw	r24, r14
     f14:	b6 01       	movw	r22, r12
     f16:	0e 94 cf 00 	call	0x19e	; 0x19e <playNote>
	playNote(BPM,QUARTER,12);
     f1a:	2c e0       	ldi	r18, 0x0C	; 12
     f1c:	40 91 02 01 	lds	r20, 0x0102	; 0x800102 <QUARTER>
     f20:	c7 01       	movw	r24, r14
     f22:	b6 01       	movw	r22, r12
     f24:	0e 94 cf 00 	call	0x19e	; 0x19e <playNote>
	playNote(BPM,QUARTER+QUARTER,13);
     f28:	40 91 02 01 	lds	r20, 0x0102	; 0x800102 <QUARTER>
     f2c:	44 0f       	add	r20, r20
     f2e:	2d e0       	ldi	r18, 0x0D	; 13
     f30:	c7 01       	movw	r24, r14
     f32:	b6 01       	movw	r22, r12
     f34:	0e 94 cf 00 	call	0x19e	; 0x19e <playNote>
	
	playNote(BPM,EIGHT,13);
     f38:	2d e0       	ldi	r18, 0x0D	; 13
     f3a:	40 91 01 01 	lds	r20, 0x0101	; 0x800101 <EIGHT>
     f3e:	c7 01       	movw	r24, r14
     f40:	b6 01       	movw	r22, r12
     f42:	0e 94 cf 00 	call	0x19e	; 0x19e <playNote>
	playNote(BPM,EIGHT,13);
     f46:	2d e0       	ldi	r18, 0x0D	; 13
     f48:	40 91 01 01 	lds	r20, 0x0101	; 0x800101 <EIGHT>
     f4c:	c7 01       	movw	r24, r14
     f4e:	b6 01       	movw	r22, r12
     f50:	0e 94 cf 00 	call	0x19e	; 0x19e <playNote>
	playNote(BPM,EIGHT,13);
     f54:	2d e0       	ldi	r18, 0x0D	; 13
     f56:	40 91 01 01 	lds	r20, 0x0101	; 0x800101 <EIGHT>
     f5a:	c7 01       	movw	r24, r14
     f5c:	b6 01       	movw	r22, r12
     f5e:	0e 94 cf 00 	call	0x19e	; 0x19e <playNote>
	playNote(BPM,EIGHT,13);
     f62:	2d e0       	ldi	r18, 0x0D	; 13
     f64:	40 91 01 01 	lds	r20, 0x0101	; 0x800101 <EIGHT>
     f68:	c7 01       	movw	r24, r14
     f6a:	b6 01       	movw	r22, r12
     f6c:	0e 94 cf 00 	call	0x19e	; 0x19e <playNote>
	playNote(BPM,QUARTER,13);
     f70:	2d e0       	ldi	r18, 0x0D	; 13
     f72:	40 91 02 01 	lds	r20, 0x0102	; 0x800102 <QUARTER>
     f76:	c7 01       	movw	r24, r14
     f78:	b6 01       	movw	r22, r12
     f7a:	0e 94 cf 00 	call	0x19e	; 0x19e <playNote>
	playNote(BPM,QUARTER+EIGHT,15);
     f7e:	40 91 02 01 	lds	r20, 0x0102	; 0x800102 <QUARTER>
     f82:	80 91 01 01 	lds	r24, 0x0101	; 0x800101 <EIGHT>
     f86:	48 0f       	add	r20, r24
     f88:	2f e0       	ldi	r18, 0x0F	; 15
     f8a:	c7 01       	movw	r24, r14
     f8c:	b6 01       	movw	r22, r12
     f8e:	0e 94 cf 00 	call	0x19e	; 0x19e <playNote>
	playNote(BPM,QUARTER,17);
     f92:	21 e1       	ldi	r18, 0x11	; 17
     f94:	40 91 02 01 	lds	r20, 0x0102	; 0x800102 <QUARTER>
     f98:	c7 01       	movw	r24, r14
     f9a:	b6 01       	movw	r22, r12
     f9c:	0e 94 cf 00 	call	0x19e	; 0x19e <playNote>
	
	playNote(BPM,QUARTER,32);
     fa0:	20 e2       	ldi	r18, 0x20	; 32
     fa2:	40 91 02 01 	lds	r20, 0x0102	; 0x800102 <QUARTER>
     fa6:	c7 01       	movw	r24, r14
     fa8:	b6 01       	movw	r22, r12
     faa:	0e 94 cf 00 	call	0x19e	; 0x19e <playNote>
	playNote(BPM,EIGHT,13);
     fae:	2d e0       	ldi	r18, 0x0D	; 13
     fb0:	40 91 01 01 	lds	r20, 0x0101	; 0x800101 <EIGHT>
     fb4:	c7 01       	movw	r24, r14
     fb6:	b6 01       	movw	r22, r12
     fb8:	0e 94 cf 00 	call	0x19e	; 0x19e <playNote>
	playNote(BPM,EIGHT,13);
     fbc:	2d e0       	ldi	r18, 0x0D	; 13
     fbe:	40 91 01 01 	lds	r20, 0x0101	; 0x800101 <EIGHT>
     fc2:	c7 01       	movw	r24, r14
     fc4:	b6 01       	movw	r22, r12
     fc6:	0e 94 cf 00 	call	0x19e	; 0x19e <playNote>
	playNote(BPM,EIGHT,13);
     fca:	2d e0       	ldi	r18, 0x0D	; 13
     fcc:	40 91 01 01 	lds	r20, 0x0101	; 0x800101 <EIGHT>
     fd0:	c7 01       	movw	r24, r14
     fd2:	b6 01       	movw	r22, r12
     fd4:	0e 94 cf 00 	call	0x19e	; 0x19e <playNote>
	playNote(BPM,EIGHT,13);
     fd8:	2d e0       	ldi	r18, 0x0D	; 13
     fda:	40 91 01 01 	lds	r20, 0x0101	; 0x800101 <EIGHT>
     fde:	c7 01       	movw	r24, r14
     fe0:	b6 01       	movw	r22, r12
     fe2:	0e 94 cf 00 	call	0x19e	; 0x19e <playNote>
	playNote(BPM,QUARTER,13);
     fe6:	2d e0       	ldi	r18, 0x0D	; 13
     fe8:	40 91 02 01 	lds	r20, 0x0102	; 0x800102 <QUARTER>
     fec:	c7 01       	movw	r24, r14
     fee:	b6 01       	movw	r22, r12
     ff0:	0e 94 cf 00 	call	0x19e	; 0x19e <playNote>
	playNote(BPM,QUARTER,13);
     ff4:	2d e0       	ldi	r18, 0x0D	; 13
     ff6:	40 91 02 01 	lds	r20, 0x0102	; 0x800102 <QUARTER>
     ffa:	c7 01       	movw	r24, r14
     ffc:	b6 01       	movw	r22, r12
     ffe:	0e 94 cf 00 	call	0x19e	; 0x19e <playNote>
	
	playNote(BPM,QUARTER+EIGHT,15);
    1002:	40 91 02 01 	lds	r20, 0x0102	; 0x800102 <QUARTER>
    1006:	80 91 01 01 	lds	r24, 0x0101	; 0x800101 <EIGHT>
    100a:	48 0f       	add	r20, r24
    100c:	2f e0       	ldi	r18, 0x0F	; 15
    100e:	c7 01       	movw	r24, r14
    1010:	b6 01       	movw	r22, r12
    1012:	0e 94 cf 00 	call	0x19e	; 0x19e <playNote>
	playNote(BPM,QUARTER,17);
    1016:	21 e1       	ldi	r18, 0x11	; 17
    1018:	40 91 02 01 	lds	r20, 0x0102	; 0x800102 <QUARTER>
    101c:	c7 01       	movw	r24, r14
    101e:	b6 01       	movw	r22, r12
    1020:	0e 94 cf 00 	call	0x19e	; 0x19e <playNote>
	
	playNote(BPM,QUARTER,32);
    1024:	20 e2       	ldi	r18, 0x20	; 32
    1026:	40 91 02 01 	lds	r20, 0x0102	; 0x800102 <QUARTER>
    102a:	c7 01       	movw	r24, r14
    102c:	b6 01       	movw	r22, r12
    102e:	0e 94 cf 00 	call	0x19e	; 0x19e <playNote>
	playNote(BPM,EIGHT,8);
    1032:	28 e0       	ldi	r18, 0x08	; 8
    1034:	40 91 01 01 	lds	r20, 0x0101	; 0x800101 <EIGHT>
    1038:	c7 01       	movw	r24, r14
    103a:	b6 01       	movw	r22, r12
    103c:	0e 94 cf 00 	call	0x19e	; 0x19e <playNote>
	playNote(BPM,EIGHT,13);
    1040:	2d e0       	ldi	r18, 0x0D	; 13
    1042:	40 91 01 01 	lds	r20, 0x0101	; 0x800101 <EIGHT>
    1046:	c7 01       	movw	r24, r14
    1048:	b6 01       	movw	r22, r12
    104a:	0e 94 cf 00 	call	0x19e	; 0x19e <playNote>
	playNote(BPM,EIGHT,13);
    104e:	2d e0       	ldi	r18, 0x0D	; 13
    1050:	40 91 01 01 	lds	r20, 0x0101	; 0x800101 <EIGHT>
    1054:	c7 01       	movw	r24, r14
    1056:	b6 01       	movw	r22, r12
    1058:	0e 94 cf 00 	call	0x19e	; 0x19e <playNote>
	playNote(BPM,EIGHT,13);
    105c:	2d e0       	ldi	r18, 0x0D	; 13
    105e:	40 91 01 01 	lds	r20, 0x0101	; 0x800101 <EIGHT>
    1062:	c7 01       	movw	r24, r14
    1064:	b6 01       	movw	r22, r12
    1066:	0e 94 cf 00 	call	0x19e	; 0x19e <playNote>
	playNote(BPM,QUARTER,13);
    106a:	2d e0       	ldi	r18, 0x0D	; 13
    106c:	40 91 02 01 	lds	r20, 0x0102	; 0x800102 <QUARTER>
    1070:	c7 01       	movw	r24, r14
    1072:	b6 01       	movw	r22, r12
    1074:	0e 94 cf 00 	call	0x19e	; 0x19e <playNote>
	playNote(BPM,EIGHT,13);
    1078:	2d e0       	ldi	r18, 0x0D	; 13
    107a:	40 91 01 01 	lds	r20, 0x0101	; 0x800101 <EIGHT>
    107e:	c7 01       	movw	r24, r14
    1080:	b6 01       	movw	r22, r12
    1082:	0e 94 cf 00 	call	0x19e	; 0x19e <playNote>
	playNote(BPM,EIGHT,13);
    1086:	2d e0       	ldi	r18, 0x0D	; 13
    1088:	40 91 01 01 	lds	r20, 0x0101	; 0x800101 <EIGHT>
    108c:	c7 01       	movw	r24, r14
    108e:	b6 01       	movw	r22, r12
    1090:	0e 94 cf 00 	call	0x19e	; 0x19e <playNote>
	playNote(BPM,EIGHT,12);
    1094:	2c e0       	ldi	r18, 0x0C	; 12
    1096:	40 91 01 01 	lds	r20, 0x0101	; 0x800101 <EIGHT>
    109a:	c7 01       	movw	r24, r14
    109c:	b6 01       	movw	r22, r12
    109e:	0e 94 cf 00 	call	0x19e	; 0x19e <playNote>
	playNote(BPM,EIGHT,12);
    10a2:	2c e0       	ldi	r18, 0x0C	; 12
    10a4:	40 91 01 01 	lds	r20, 0x0101	; 0x800101 <EIGHT>
    10a8:	c7 01       	movw	r24, r14
    10aa:	b6 01       	movw	r22, r12
    10ac:	0e 94 cf 00 	call	0x19e	; 0x19e <playNote>
	playNote(BPM,EIGHT,12);
    10b0:	2c e0       	ldi	r18, 0x0C	; 12
    10b2:	40 91 01 01 	lds	r20, 0x0101	; 0x800101 <EIGHT>
    10b6:	c7 01       	movw	r24, r14
    10b8:	b6 01       	movw	r22, r12
    10ba:	0e 94 cf 00 	call	0x19e	; 0x19e <playNote>
	playNote(BPM,EIGHT,12);
    10be:	2c e0       	ldi	r18, 0x0C	; 12
    10c0:	40 91 01 01 	lds	r20, 0x0101	; 0x800101 <EIGHT>
    10c4:	c7 01       	movw	r24, r14
    10c6:	b6 01       	movw	r22, r12
    10c8:	0e 94 cf 00 	call	0x19e	; 0x19e <playNote>
	playNote(BPM,EIGHT,12);
    10cc:	2c e0       	ldi	r18, 0x0C	; 12
    10ce:	40 91 01 01 	lds	r20, 0x0101	; 0x800101 <EIGHT>
    10d2:	c7 01       	movw	r24, r14
    10d4:	b6 01       	movw	r22, r12
    10d6:	0e 94 cf 00 	call	0x19e	; 0x19e <playNote>
	playNote(BPM,QUARTER,13);
    10da:	2d e0       	ldi	r18, 0x0D	; 13
    10dc:	40 91 02 01 	lds	r20, 0x0102	; 0x800102 <QUARTER>
    10e0:	c7 01       	movw	r24, r14
    10e2:	b6 01       	movw	r22, r12
    10e4:	0e 94 cf 00 	call	0x19e	; 0x19e <playNote>
	
	playNote(BPM,EIGHT,13);
    10e8:	2d e0       	ldi	r18, 0x0D	; 13
    10ea:	40 91 01 01 	lds	r20, 0x0101	; 0x800101 <EIGHT>
    10ee:	c7 01       	movw	r24, r14
    10f0:	b6 01       	movw	r22, r12
    10f2:	0e 94 cf 00 	call	0x19e	; 0x19e <playNote>
	playNote(BPM,EIGHT,13);
    10f6:	2d e0       	ldi	r18, 0x0D	; 13
    10f8:	40 91 01 01 	lds	r20, 0x0101	; 0x800101 <EIGHT>
    10fc:	c7 01       	movw	r24, r14
    10fe:	b6 01       	movw	r22, r12
    1100:	0e 94 cf 00 	call	0x19e	; 0x19e <playNote>
	playNote(BPM,EIGHT,13);
    1104:	2d e0       	ldi	r18, 0x0D	; 13
    1106:	40 91 01 01 	lds	r20, 0x0101	; 0x800101 <EIGHT>
    110a:	c7 01       	movw	r24, r14
    110c:	b6 01       	movw	r22, r12
    110e:	0e 94 cf 00 	call	0x19e	; 0x19e <playNote>
	playNote(BPM,EIGHT,13);
    1112:	2d e0       	ldi	r18, 0x0D	; 13
    1114:	40 91 01 01 	lds	r20, 0x0101	; 0x800101 <EIGHT>
    1118:	c7 01       	movw	r24, r14
    111a:	b6 01       	movw	r22, r12
    111c:	0e 94 cf 00 	call	0x19e	; 0x19e <playNote>
	playNote(BPM,EIGHT,13);
    1120:	2d e0       	ldi	r18, 0x0D	; 13
    1122:	40 91 01 01 	lds	r20, 0x0101	; 0x800101 <EIGHT>
    1126:	c7 01       	movw	r24, r14
    1128:	b6 01       	movw	r22, r12
    112a:	0e 94 cf 00 	call	0x19e	; 0x19e <playNote>
	playNote(BPM,EIGHT,13);
    112e:	2d e0       	ldi	r18, 0x0D	; 13
    1130:	40 91 01 01 	lds	r20, 0x0101	; 0x800101 <EIGHT>
    1134:	c7 01       	movw	r24, r14
    1136:	b6 01       	movw	r22, r12
    1138:	0e 94 cf 00 	call	0x19e	; 0x19e <playNote>
	playNote(BPM,EIGHT,12);
    113c:	2c e0       	ldi	r18, 0x0C	; 12
    113e:	40 91 01 01 	lds	r20, 0x0101	; 0x800101 <EIGHT>
    1142:	c7 01       	movw	r24, r14
    1144:	b6 01       	movw	r22, r12
    1146:	0e 94 cf 00 	call	0x19e	; 0x19e <playNote>
	playNote(BPM,QUARTER,13);
    114a:	2d e0       	ldi	r18, 0x0D	; 13
    114c:	40 91 02 01 	lds	r20, 0x0102	; 0x800102 <QUARTER>
    1150:	c7 01       	movw	r24, r14
    1152:	b6 01       	movw	r22, r12
    1154:	0e 94 cf 00 	call	0x19e	; 0x19e <playNote>
	
	
	
	playNote(BPM,EIGHT,13);
    1158:	2d e0       	ldi	r18, 0x0D	; 13
    115a:	40 91 01 01 	lds	r20, 0x0101	; 0x800101 <EIGHT>
    115e:	c7 01       	movw	r24, r14
    1160:	b6 01       	movw	r22, r12
    1162:	0e 94 cf 00 	call	0x19e	; 0x19e <playNote>
	playNote(BPM,EIGHT,13);
    1166:	2d e0       	ldi	r18, 0x0D	; 13
    1168:	40 91 01 01 	lds	r20, 0x0101	; 0x800101 <EIGHT>
    116c:	c7 01       	movw	r24, r14
    116e:	b6 01       	movw	r22, r12
    1170:	0e 94 cf 00 	call	0x19e	; 0x19e <playNote>
	playNote(BPM,EIGHT,13);
    1174:	2d e0       	ldi	r18, 0x0D	; 13
    1176:	40 91 01 01 	lds	r20, 0x0101	; 0x800101 <EIGHT>
    117a:	c7 01       	movw	r24, r14
    117c:	b6 01       	movw	r22, r12
    117e:	0e 94 cf 00 	call	0x19e	; 0x19e <playNote>
	playNote(BPM,QUARTER,13);
    1182:	2d e0       	ldi	r18, 0x0D	; 13
    1184:	40 91 02 01 	lds	r20, 0x0102	; 0x800102 <QUARTER>
    1188:	c7 01       	movw	r24, r14
    118a:	b6 01       	movw	r22, r12
    118c:	0e 94 cf 00 	call	0x19e	; 0x19e <playNote>
	playNote(BPM,EIGHT,13);
    1190:	2d e0       	ldi	r18, 0x0D	; 13
    1192:	40 91 01 01 	lds	r20, 0x0101	; 0x800101 <EIGHT>
    1196:	c7 01       	movw	r24, r14
    1198:	b6 01       	movw	r22, r12
    119a:	0e 94 cf 00 	call	0x19e	; 0x19e <playNote>
	playNote(BPM,QUARTER,13);
    119e:	2d e0       	ldi	r18, 0x0D	; 13
    11a0:	40 91 02 01 	lds	r20, 0x0102	; 0x800102 <QUARTER>
    11a4:	c7 01       	movw	r24, r14
    11a6:	b6 01       	movw	r22, r12
    11a8:	0e 94 cf 00 	call	0x19e	; 0x19e <playNote>
	playNote(BPM,EIGHT,13);
    11ac:	2d e0       	ldi	r18, 0x0D	; 13
    11ae:	40 91 01 01 	lds	r20, 0x0101	; 0x800101 <EIGHT>
    11b2:	c7 01       	movw	r24, r14
    11b4:	b6 01       	movw	r22, r12
    11b6:	0e 94 cf 00 	call	0x19e	; 0x19e <playNote>
	playNote(BPM,EIGHT,13);
    11ba:	2d e0       	ldi	r18, 0x0D	; 13
    11bc:	40 91 01 01 	lds	r20, 0x0101	; 0x800101 <EIGHT>
    11c0:	c7 01       	movw	r24, r14
    11c2:	b6 01       	movw	r22, r12
    11c4:	0e 94 cf 00 	call	0x19e	; 0x19e <playNote>
	playNote(BPM,EIGHT,13);
    11c8:	2d e0       	ldi	r18, 0x0D	; 13
    11ca:	40 91 01 01 	lds	r20, 0x0101	; 0x800101 <EIGHT>
    11ce:	c7 01       	movw	r24, r14
    11d0:	b6 01       	movw	r22, r12
    11d2:	0e 94 cf 00 	call	0x19e	; 0x19e <playNote>
	playNote(BPM,EIGHT,13);
    11d6:	2d e0       	ldi	r18, 0x0D	; 13
    11d8:	40 91 01 01 	lds	r20, 0x0101	; 0x800101 <EIGHT>
    11dc:	c7 01       	movw	r24, r14
    11de:	b6 01       	movw	r22, r12
    11e0:	0e 94 cf 00 	call	0x19e	; 0x19e <playNote>
	
	playNote(BPM,EIGHT,22);
    11e4:	26 e1       	ldi	r18, 0x16	; 22
    11e6:	40 91 01 01 	lds	r20, 0x0101	; 0x800101 <EIGHT>
    11ea:	c7 01       	movw	r24, r14
    11ec:	b6 01       	movw	r22, r12
    11ee:	0e 94 cf 00 	call	0x19e	; 0x19e <playNote>
	playNote(BPM,EIGHT,20);
    11f2:	24 e1       	ldi	r18, 0x14	; 20
    11f4:	40 91 01 01 	lds	r20, 0x0101	; 0x800101 <EIGHT>
    11f8:	c7 01       	movw	r24, r14
    11fa:	b6 01       	movw	r22, r12
    11fc:	0e 94 cf 00 	call	0x19e	; 0x19e <playNote>
	playNote(BPM,QUARTER,17);
    1200:	21 e1       	ldi	r18, 0x11	; 17
    1202:	40 91 02 01 	lds	r20, 0x0102	; 0x800102 <QUARTER>
    1206:	c7 01       	movw	r24, r14
    1208:	b6 01       	movw	r22, r12
    120a:	0e 94 cf 00 	call	0x19e	; 0x19e <playNote>
	
	playNote(BPM,EIGHT,17);
    120e:	21 e1       	ldi	r18, 0x11	; 17
    1210:	40 91 01 01 	lds	r20, 0x0101	; 0x800101 <EIGHT>
    1214:	c7 01       	movw	r24, r14
    1216:	b6 01       	movw	r22, r12
    1218:	0e 94 cf 00 	call	0x19e	; 0x19e <playNote>
	playNote(BPM,EIGHT,17);
    121c:	21 e1       	ldi	r18, 0x11	; 17
    121e:	40 91 01 01 	lds	r20, 0x0101	; 0x800101 <EIGHT>
    1222:	c7 01       	movw	r24, r14
    1224:	b6 01       	movw	r22, r12
    1226:	0e 94 cf 00 	call	0x19e	; 0x19e <playNote>
	playNote(BPM,QUARTER,17);
    122a:	21 e1       	ldi	r18, 0x11	; 17
    122c:	40 91 02 01 	lds	r20, 0x0102	; 0x800102 <QUARTER>
    1230:	c7 01       	movw	r24, r14
    1232:	b6 01       	movw	r22, r12
    1234:	0e 94 cf 00 	call	0x19e	; 0x19e <playNote>
	playNote(BPM,QUARTER,17);
    1238:	21 e1       	ldi	r18, 0x11	; 17
    123a:	40 91 02 01 	lds	r20, 0x0102	; 0x800102 <QUARTER>
    123e:	c7 01       	movw	r24, r14
    1240:	b6 01       	movw	r22, r12
    1242:	0e 94 cf 00 	call	0x19e	; 0x19e <playNote>
	playNote(BPM,QUARTER,17);
    1246:	21 e1       	ldi	r18, 0x11	; 17
    1248:	40 91 02 01 	lds	r20, 0x0102	; 0x800102 <QUARTER>
    124c:	c7 01       	movw	r24, r14
    124e:	b6 01       	movw	r22, r12
    1250:	0e 94 cf 00 	call	0x19e	; 0x19e <playNote>
	playNote(BPM,EIGHT,15);
    1254:	2f e0       	ldi	r18, 0x0F	; 15
    1256:	40 91 01 01 	lds	r20, 0x0101	; 0x800101 <EIGHT>
    125a:	c7 01       	movw	r24, r14
    125c:	b6 01       	movw	r22, r12
    125e:	0e 94 cf 00 	call	0x19e	; 0x19e <playNote>
	playNote(BPM,QUARTER+QUARTER,17);
    1262:	40 91 02 01 	lds	r20, 0x0102	; 0x800102 <QUARTER>
    1266:	44 0f       	add	r20, r20
    1268:	21 e1       	ldi	r18, 0x11	; 17
    126a:	c7 01       	movw	r24, r14
    126c:	b6 01       	movw	r22, r12
    126e:	0e 94 cf 00 	call	0x19e	; 0x19e <playNote>
	
	playNote(BPM,EIGHT,13);
    1272:	2d e0       	ldi	r18, 0x0D	; 13
    1274:	40 91 01 01 	lds	r20, 0x0101	; 0x800101 <EIGHT>
    1278:	c7 01       	movw	r24, r14
    127a:	b6 01       	movw	r22, r12
    127c:	0e 94 cf 00 	call	0x19e	; 0x19e <playNote>
	playNote(BPM,EIGHT,13);
    1280:	2d e0       	ldi	r18, 0x0D	; 13
    1282:	40 91 01 01 	lds	r20, 0x0101	; 0x800101 <EIGHT>
    1286:	c7 01       	movw	r24, r14
    1288:	b6 01       	movw	r22, r12
    128a:	0e 94 cf 00 	call	0x19e	; 0x19e <playNote>
	playNote(BPM,QUARTER,17);
    128e:	21 e1       	ldi	r18, 0x11	; 17
    1290:	40 91 02 01 	lds	r20, 0x0102	; 0x800102 <QUARTER>
    1294:	c7 01       	movw	r24, r14
    1296:	b6 01       	movw	r22, r12
    1298:	0e 94 cf 00 	call	0x19e	; 0x19e <playNote>
	playNote(BPM,QUARTER,17);
    129c:	21 e1       	ldi	r18, 0x11	; 17
    129e:	40 91 02 01 	lds	r20, 0x0102	; 0x800102 <QUARTER>
    12a2:	c7 01       	movw	r24, r14
    12a4:	b6 01       	movw	r22, r12
    12a6:	0e 94 cf 00 	call	0x19e	; 0x19e <playNote>
	playNote(BPM,QUARTER,17);
    12aa:	21 e1       	ldi	r18, 0x11	; 17
    12ac:	40 91 02 01 	lds	r20, 0x0102	; 0x800102 <QUARTER>
    12b0:	c7 01       	movw	r24, r14
    12b2:	b6 01       	movw	r22, r12
    12b4:	0e 94 cf 00 	call	0x19e	; 0x19e <playNote>
	playNote(BPM,EIGHT,15);
    12b8:	2f e0       	ldi	r18, 0x0F	; 15
    12ba:	40 91 01 01 	lds	r20, 0x0101	; 0x800101 <EIGHT>
    12be:	c7 01       	movw	r24, r14
    12c0:	b6 01       	movw	r22, r12
    12c2:	0e 94 cf 00 	call	0x19e	; 0x19e <playNote>
	playNote(BPM,QUARTER,15);
    12c6:	2f e0       	ldi	r18, 0x0F	; 15
    12c8:	40 91 02 01 	lds	r20, 0x0102	; 0x800102 <QUARTER>
    12cc:	c7 01       	movw	r24, r14
    12ce:	b6 01       	movw	r22, r12
    12d0:	0e 94 cf 00 	call	0x19e	; 0x19e <playNote>
	playNote(BPM,EIGHT,13);
    12d4:	2d e0       	ldi	r18, 0x0D	; 13
    12d6:	40 91 01 01 	lds	r20, 0x0101	; 0x800101 <EIGHT>
    12da:	c7 01       	movw	r24, r14
    12dc:	b6 01       	movw	r22, r12
    12de:	0e 94 cf 00 	call	0x19e	; 0x19e <playNote>
	playNote(BPM,QUARTER+QUARTER,10);
    12e2:	40 91 02 01 	lds	r20, 0x0102	; 0x800102 <QUARTER>
    12e6:	44 0f       	add	r20, r20
    12e8:	2a e0       	ldi	r18, 0x0A	; 10
    12ea:	c7 01       	movw	r24, r14
    12ec:	b6 01       	movw	r22, r12
    12ee:	0e 94 cf 00 	call	0x19e	; 0x19e <playNote>
	
	playNote(BPM,EIGHT,13);
    12f2:	2d e0       	ldi	r18, 0x0D	; 13
    12f4:	40 91 01 01 	lds	r20, 0x0101	; 0x800101 <EIGHT>
    12f8:	c7 01       	movw	r24, r14
    12fa:	b6 01       	movw	r22, r12
    12fc:	0e 94 cf 00 	call	0x19e	; 0x19e <playNote>
	playNote(BPM,EIGHT,13);
    1300:	2d e0       	ldi	r18, 0x0D	; 13
    1302:	40 91 01 01 	lds	r20, 0x0101	; 0x800101 <EIGHT>
    1306:	c7 01       	movw	r24, r14
    1308:	b6 01       	movw	r22, r12
    130a:	0e 94 cf 00 	call	0x19e	; 0x19e <playNote>
	playNote(BPM,QUARTER,17);
    130e:	21 e1       	ldi	r18, 0x11	; 17
    1310:	40 91 02 01 	lds	r20, 0x0102	; 0x800102 <QUARTER>
    1314:	c7 01       	movw	r24, r14
    1316:	b6 01       	movw	r22, r12
    1318:	0e 94 cf 00 	call	0x19e	; 0x19e <playNote>
	playNote(BPM,QUARTER,17);
    131c:	21 e1       	ldi	r18, 0x11	; 17
    131e:	40 91 02 01 	lds	r20, 0x0102	; 0x800102 <QUARTER>
    1322:	c7 01       	movw	r24, r14
    1324:	b6 01       	movw	r22, r12
    1326:	0e 94 cf 00 	call	0x19e	; 0x19e <playNote>
	playNote(BPM,QUARTER,17);
    132a:	21 e1       	ldi	r18, 0x11	; 17
    132c:	40 91 02 01 	lds	r20, 0x0102	; 0x800102 <QUARTER>
    1330:	c7 01       	movw	r24, r14
    1332:	b6 01       	movw	r22, r12
    1334:	0e 94 cf 00 	call	0x19e	; 0x19e <playNote>
	playNote(BPM,EIGHT,15);
    1338:	2f e0       	ldi	r18, 0x0F	; 15
    133a:	40 91 01 01 	lds	r20, 0x0101	; 0x800101 <EIGHT>
    133e:	c7 01       	movw	r24, r14
    1340:	b6 01       	movw	r22, r12
    1342:	0e 94 cf 00 	call	0x19e	; 0x19e <playNote>
	playNote(BPM,QUARTER+QUARTER,17);
    1346:	40 91 02 01 	lds	r20, 0x0102	; 0x800102 <QUARTER>
    134a:	44 0f       	add	r20, r20
    134c:	21 e1       	ldi	r18, 0x11	; 17
    134e:	c7 01       	movw	r24, r14
    1350:	b6 01       	movw	r22, r12
    1352:	0e 94 cf 00 	call	0x19e	; 0x19e <playNote>
	
	playNote(BPM,EIGHT,13);
    1356:	2d e0       	ldi	r18, 0x0D	; 13
    1358:	40 91 01 01 	lds	r20, 0x0101	; 0x800101 <EIGHT>
    135c:	c7 01       	movw	r24, r14
    135e:	b6 01       	movw	r22, r12
    1360:	0e 94 cf 00 	call	0x19e	; 0x19e <playNote>
	playNote(BPM,EIGHT,13);
    1364:	2d e0       	ldi	r18, 0x0D	; 13
    1366:	40 91 01 01 	lds	r20, 0x0101	; 0x800101 <EIGHT>
    136a:	c7 01       	movw	r24, r14
    136c:	b6 01       	movw	r22, r12
    136e:	0e 94 cf 00 	call	0x19e	; 0x19e <playNote>
	playNote(BPM,EIGHT,13);
    1372:	2d e0       	ldi	r18, 0x0D	; 13
    1374:	40 91 01 01 	lds	r20, 0x0101	; 0x800101 <EIGHT>
    1378:	c7 01       	movw	r24, r14
    137a:	b6 01       	movw	r22, r12
    137c:	0e 94 cf 00 	call	0x19e	; 0x19e <playNote>
	playNote(BPM,EIGHT,13);
    1380:	2d e0       	ldi	r18, 0x0D	; 13
    1382:	40 91 01 01 	lds	r20, 0x0101	; 0x800101 <EIGHT>
    1386:	c7 01       	movw	r24, r14
    1388:	b6 01       	movw	r22, r12
    138a:	0e 94 cf 00 	call	0x19e	; 0x19e <playNote>
	playNote(BPM,QUARTER+QUARTER,20);
    138e:	40 91 02 01 	lds	r20, 0x0102	; 0x800102 <QUARTER>
    1392:	44 0f       	add	r20, r20
    1394:	24 e1       	ldi	r18, 0x14	; 20
    1396:	c7 01       	movw	r24, r14
    1398:	b6 01       	movw	r22, r12
    139a:	0e 94 cf 00 	call	0x19e	; 0x19e <playNote>
	playNote(BPM,QUARTER+QUARTER,17);
    139e:	40 91 02 01 	lds	r20, 0x0102	; 0x800102 <QUARTER>
    13a2:	44 0f       	add	r20, r20
    13a4:	21 e1       	ldi	r18, 0x11	; 17
    13a6:	c7 01       	movw	r24, r14
    13a8:	b6 01       	movw	r22, r12
    13aa:	0e 94 cf 00 	call	0x19e	; 0x19e <playNote>
	playNote(BPM,QUARTER,13);
    13ae:	2d e0       	ldi	r18, 0x0D	; 13
    13b0:	40 91 02 01 	lds	r20, 0x0102	; 0x800102 <QUARTER>
    13b4:	c7 01       	movw	r24, r14
    13b6:	b6 01       	movw	r22, r12
    13b8:	0e 94 cf 00 	call	0x19e	; 0x19e <playNote>
	playNote(BPM,EIGHT,20);
    13bc:	24 e1       	ldi	r18, 0x14	; 20
    13be:	40 91 01 01 	lds	r20, 0x0101	; 0x800101 <EIGHT>
    13c2:	c7 01       	movw	r24, r14
    13c4:	b6 01       	movw	r22, r12
    13c6:	0e 94 cf 00 	call	0x19e	; 0x19e <playNote>
	playNote(BPM,EIGHT,20);
    13ca:	24 e1       	ldi	r18, 0x14	; 20
    13cc:	40 91 01 01 	lds	r20, 0x0101	; 0x800101 <EIGHT>
    13d0:	c7 01       	movw	r24, r14
    13d2:	b6 01       	movw	r22, r12
    13d4:	0e 94 cf 00 	call	0x19e	; 0x19e <playNote>
	playNote(BPM,EIGHT,20);
    13d8:	24 e1       	ldi	r18, 0x14	; 20
    13da:	40 91 01 01 	lds	r20, 0x0101	; 0x800101 <EIGHT>
    13de:	c7 01       	movw	r24, r14
    13e0:	b6 01       	movw	r22, r12
    13e2:	0e 94 cf 00 	call	0x19e	; 0x19e <playNote>
	playNote(BPM,QUARTER+QUARTER,17);
    13e6:	40 91 02 01 	lds	r20, 0x0102	; 0x800102 <QUARTER>
    13ea:	44 0f       	add	r20, r20
    13ec:	21 e1       	ldi	r18, 0x11	; 17
    13ee:	c7 01       	movw	r24, r14
    13f0:	b6 01       	movw	r22, r12
    13f2:	0e 94 cf 00 	call	0x19e	; 0x19e <playNote>
	
	playNote(BPM,EIGHT,17);
    13f6:	21 e1       	ldi	r18, 0x11	; 17
    13f8:	40 91 01 01 	lds	r20, 0x0101	; 0x800101 <EIGHT>
    13fc:	c7 01       	movw	r24, r14
    13fe:	b6 01       	movw	r22, r12
    1400:	0e 94 cf 00 	call	0x19e	; 0x19e <playNote>
	playNote(BPM,EIGHT,17);
    1404:	21 e1       	ldi	r18, 0x11	; 17
    1406:	40 91 01 01 	lds	r20, 0x0101	; 0x800101 <EIGHT>
    140a:	c7 01       	movw	r24, r14
    140c:	b6 01       	movw	r22, r12
    140e:	0e 94 cf 00 	call	0x19e	; 0x19e <playNote>
	playNote(BPM,EIGHT,17);
    1412:	21 e1       	ldi	r18, 0x11	; 17
    1414:	40 91 01 01 	lds	r20, 0x0101	; 0x800101 <EIGHT>
    1418:	c7 01       	movw	r24, r14
    141a:	b6 01       	movw	r22, r12
    141c:	0e 94 cf 00 	call	0x19e	; 0x19e <playNote>
	playNote(BPM,EIGHT,17);
    1420:	21 e1       	ldi	r18, 0x11	; 17
    1422:	40 91 01 01 	lds	r20, 0x0101	; 0x800101 <EIGHT>
    1426:	c7 01       	movw	r24, r14
    1428:	b6 01       	movw	r22, r12
    142a:	0e 94 cf 00 	call	0x19e	; 0x19e <playNote>
	playNote(BPM,QUARTER,17);
    142e:	21 e1       	ldi	r18, 0x11	; 17
    1430:	40 91 02 01 	lds	r20, 0x0102	; 0x800102 <QUARTER>
    1434:	c7 01       	movw	r24, r14
    1436:	b6 01       	movw	r22, r12
    1438:	0e 94 cf 00 	call	0x19e	; 0x19e <playNote>
	playNote(BPM,QUARTER,13);
    143c:	2d e0       	ldi	r18, 0x0D	; 13
    143e:	40 91 02 01 	lds	r20, 0x0102	; 0x800102 <QUARTER>
    1442:	c7 01       	movw	r24, r14
    1444:	b6 01       	movw	r22, r12
    1446:	0e 94 cf 00 	call	0x19e	; 0x19e <playNote>
	playNote(BPM,QUARTER+QUARTER,15);
    144a:	40 91 02 01 	lds	r20, 0x0102	; 0x800102 <QUARTER>
    144e:	44 0f       	add	r20, r20
    1450:	2f e0       	ldi	r18, 0x0F	; 15
    1452:	c7 01       	movw	r24, r14
    1454:	b6 01       	movw	r22, r12
    1456:	0e 94 cf 00 	call	0x19e	; 0x19e <playNote>
	
	playNote(BPM,EIGHT,13);
    145a:	2d e0       	ldi	r18, 0x0D	; 13
    145c:	40 91 01 01 	lds	r20, 0x0101	; 0x800101 <EIGHT>
    1460:	c7 01       	movw	r24, r14
    1462:	b6 01       	movw	r22, r12
    1464:	0e 94 cf 00 	call	0x19e	; 0x19e <playNote>
	playNote(BPM,QUARTER,13);
    1468:	2d e0       	ldi	r18, 0x0D	; 13
    146a:	40 91 02 01 	lds	r20, 0x0102	; 0x800102 <QUARTER>
    146e:	c7 01       	movw	r24, r14
    1470:	b6 01       	movw	r22, r12
    1472:	0e 94 cf 00 	call	0x19e	; 0x19e <playNote>
	playNote(BPM,EIGHT,13);
    1476:	2d e0       	ldi	r18, 0x0D	; 13
    1478:	40 91 01 01 	lds	r20, 0x0101	; 0x800101 <EIGHT>
    147c:	c7 01       	movw	r24, r14
    147e:	b6 01       	movw	r22, r12
    1480:	0e 94 cf 00 	call	0x19e	; 0x19e <playNote>
	playNote(BPM,QUARTER,13);
    1484:	2d e0       	ldi	r18, 0x0D	; 13
    1486:	40 91 02 01 	lds	r20, 0x0102	; 0x800102 <QUARTER>
    148a:	c7 01       	movw	r24, r14
    148c:	b6 01       	movw	r22, r12
    148e:	0e 94 cf 00 	call	0x19e	; 0x19e <playNote>
	playNote(BPM,EIGHT,13);
    1492:	2d e0       	ldi	r18, 0x0D	; 13
    1494:	40 91 01 01 	lds	r20, 0x0101	; 0x800101 <EIGHT>
    1498:	c7 01       	movw	r24, r14
    149a:	b6 01       	movw	r22, r12
    149c:	0e 94 cf 00 	call	0x19e	; 0x19e <playNote>
	playNote(BPM,QUARTER+QUARTER,8);
    14a0:	40 91 02 01 	lds	r20, 0x0102	; 0x800102 <QUARTER>
    14a4:	44 0f       	add	r20, r20
    14a6:	28 e0       	ldi	r18, 0x08	; 8
    14a8:	c7 01       	movw	r24, r14
    14aa:	b6 01       	movw	r22, r12
    14ac:	0e 94 cf 00 	call	0x19e	; 0x19e <playNote>
	
	playNote(BPM,EIGHT,13);
    14b0:	2d e0       	ldi	r18, 0x0D	; 13
    14b2:	40 91 01 01 	lds	r20, 0x0101	; 0x800101 <EIGHT>
    14b6:	c7 01       	movw	r24, r14
    14b8:	b6 01       	movw	r22, r12
    14ba:	0e 94 cf 00 	call	0x19e	; 0x19e <playNote>
	playNote(BPM,QUARTER,13);
    14be:	2d e0       	ldi	r18, 0x0D	; 13
    14c0:	40 91 02 01 	lds	r20, 0x0102	; 0x800102 <QUARTER>
    14c4:	c7 01       	movw	r24, r14
    14c6:	b6 01       	movw	r22, r12
    14c8:	0e 94 cf 00 	call	0x19e	; 0x19e <playNote>
	playNote(BPM,EIGHT,13);
    14cc:	2d e0       	ldi	r18, 0x0D	; 13
    14ce:	40 91 01 01 	lds	r20, 0x0101	; 0x800101 <EIGHT>
    14d2:	c7 01       	movw	r24, r14
    14d4:	b6 01       	movw	r22, r12
    14d6:	0e 94 cf 00 	call	0x19e	; 0x19e <playNote>
	playNote(BPM,QUARTER,13);
    14da:	2d e0       	ldi	r18, 0x0D	; 13
    14dc:	40 91 02 01 	lds	r20, 0x0102	; 0x800102 <QUARTER>
    14e0:	c7 01       	movw	r24, r14
    14e2:	b6 01       	movw	r22, r12
    14e4:	0e 94 cf 00 	call	0x19e	; 0x19e <playNote>
	playNote(BPM,EIGHT,13);
    14e8:	2d e0       	ldi	r18, 0x0D	; 13
    14ea:	40 91 01 01 	lds	r20, 0x0101	; 0x800101 <EIGHT>
    14ee:	c7 01       	movw	r24, r14
    14f0:	b6 01       	movw	r22, r12
    14f2:	0e 94 cf 00 	call	0x19e	; 0x19e <playNote>
	playNote(BPM,QUARTER+QUARTER,8);
    14f6:	40 91 02 01 	lds	r20, 0x0102	; 0x800102 <QUARTER>
    14fa:	44 0f       	add	r20, r20
    14fc:	28 e0       	ldi	r18, 0x08	; 8
    14fe:	c7 01       	movw	r24, r14
    1500:	b6 01       	movw	r22, r12
    1502:	0e 94 cf 00 	call	0x19e	; 0x19e <playNote>
	
	playNote(BPM,EIGHT,13);
    1506:	2d e0       	ldi	r18, 0x0D	; 13
    1508:	40 91 01 01 	lds	r20, 0x0101	; 0x800101 <EIGHT>
    150c:	c7 01       	movw	r24, r14
    150e:	b6 01       	movw	r22, r12
    1510:	0e 94 cf 00 	call	0x19e	; 0x19e <playNote>
	playNote(BPM,EIGHT,13);
    1514:	2d e0       	ldi	r18, 0x0D	; 13
    1516:	40 91 01 01 	lds	r20, 0x0101	; 0x800101 <EIGHT>
    151a:	c7 01       	movw	r24, r14
    151c:	b6 01       	movw	r22, r12
    151e:	0e 94 cf 00 	call	0x19e	; 0x19e <playNote>
	playNote(BPM,EIGHT,13);
    1522:	2d e0       	ldi	r18, 0x0D	; 13
    1524:	40 91 01 01 	lds	r20, 0x0101	; 0x800101 <EIGHT>
    1528:	c7 01       	movw	r24, r14
    152a:	b6 01       	movw	r22, r12
    152c:	0e 94 cf 00 	call	0x19e	; 0x19e <playNote>
	playNote(BPM,EIGHT,13);
    1530:	2d e0       	ldi	r18, 0x0D	; 13
    1532:	40 91 01 01 	lds	r20, 0x0101	; 0x800101 <EIGHT>
    1536:	c7 01       	movw	r24, r14
    1538:	b6 01       	movw	r22, r12
    153a:	0e 94 cf 00 	call	0x19e	; 0x19e <playNote>
	playNote(BPM,QUARTER+QUARTER,20);
    153e:	40 91 02 01 	lds	r20, 0x0102	; 0x800102 <QUARTER>
    1542:	44 0f       	add	r20, r20
    1544:	24 e1       	ldi	r18, 0x14	; 20
    1546:	c7 01       	movw	r24, r14
    1548:	b6 01       	movw	r22, r12
    154a:	0e 94 cf 00 	call	0x19e	; 0x19e <playNote>
	playNote(BPM,QUARTER+QUARTER,17);
    154e:	40 91 02 01 	lds	r20, 0x0102	; 0x800102 <QUARTER>
    1552:	44 0f       	add	r20, r20
    1554:	21 e1       	ldi	r18, 0x11	; 17
    1556:	c7 01       	movw	r24, r14
    1558:	b6 01       	movw	r22, r12
    155a:	0e 94 cf 00 	call	0x19e	; 0x19e <playNote>
	playNote(BPM,QUARTER,13);
    155e:	2d e0       	ldi	r18, 0x0D	; 13
    1560:	40 91 02 01 	lds	r20, 0x0102	; 0x800102 <QUARTER>
    1564:	c7 01       	movw	r24, r14
    1566:	b6 01       	movw	r22, r12
    1568:	0e 94 cf 00 	call	0x19e	; 0x19e <playNote>
	playNote(BPM,EIGHT,20);
    156c:	24 e1       	ldi	r18, 0x14	; 20
    156e:	40 91 01 01 	lds	r20, 0x0101	; 0x800101 <EIGHT>
    1572:	c7 01       	movw	r24, r14
    1574:	b6 01       	movw	r22, r12
    1576:	0e 94 cf 00 	call	0x19e	; 0x19e <playNote>
	playNote(BPM,EIGHT,20);
    157a:	24 e1       	ldi	r18, 0x14	; 20
    157c:	40 91 01 01 	lds	r20, 0x0101	; 0x800101 <EIGHT>
    1580:	c7 01       	movw	r24, r14
    1582:	b6 01       	movw	r22, r12
    1584:	0e 94 cf 00 	call	0x19e	; 0x19e <playNote>
	playNote(BPM,EIGHT,20);
    1588:	24 e1       	ldi	r18, 0x14	; 20
    158a:	40 91 01 01 	lds	r20, 0x0101	; 0x800101 <EIGHT>
    158e:	c7 01       	movw	r24, r14
    1590:	b6 01       	movw	r22, r12
    1592:	0e 94 cf 00 	call	0x19e	; 0x19e <playNote>
	playNote(BPM,QUARTER+QUARTER,17);
    1596:	40 91 02 01 	lds	r20, 0x0102	; 0x800102 <QUARTER>
    159a:	44 0f       	add	r20, r20
    159c:	21 e1       	ldi	r18, 0x11	; 17
    159e:	c7 01       	movw	r24, r14
    15a0:	b6 01       	movw	r22, r12
    15a2:	0e 94 cf 00 	call	0x19e	; 0x19e <playNote>
	
	playNote(BPM,EIGHT,17);
    15a6:	21 e1       	ldi	r18, 0x11	; 17
    15a8:	40 91 01 01 	lds	r20, 0x0101	; 0x800101 <EIGHT>
    15ac:	c7 01       	movw	r24, r14
    15ae:	b6 01       	movw	r22, r12
    15b0:	0e 94 cf 00 	call	0x19e	; 0x19e <playNote>
	playNote(BPM,EIGHT,17);
    15b4:	21 e1       	ldi	r18, 0x11	; 17
    15b6:	40 91 01 01 	lds	r20, 0x0101	; 0x800101 <EIGHT>
    15ba:	c7 01       	movw	r24, r14
    15bc:	b6 01       	movw	r22, r12
    15be:	0e 94 cf 00 	call	0x19e	; 0x19e <playNote>
	playNote(BPM,EIGHT,17);
    15c2:	21 e1       	ldi	r18, 0x11	; 17
    15c4:	40 91 01 01 	lds	r20, 0x0101	; 0x800101 <EIGHT>
    15c8:	c7 01       	movw	r24, r14
    15ca:	b6 01       	movw	r22, r12
    15cc:	0e 94 cf 00 	call	0x19e	; 0x19e <playNote>
	playNote(BPM,EIGHT,17);
    15d0:	21 e1       	ldi	r18, 0x11	; 17
    15d2:	40 91 01 01 	lds	r20, 0x0101	; 0x800101 <EIGHT>
    15d6:	c7 01       	movw	r24, r14
    15d8:	b6 01       	movw	r22, r12
    15da:	0e 94 cf 00 	call	0x19e	; 0x19e <playNote>
	playNote(BPM,QUARTER,17);
    15de:	21 e1       	ldi	r18, 0x11	; 17
    15e0:	40 91 02 01 	lds	r20, 0x0102	; 0x800102 <QUARTER>
    15e4:	c7 01       	movw	r24, r14
    15e6:	b6 01       	movw	r22, r12
    15e8:	0e 94 cf 00 	call	0x19e	; 0x19e <playNote>
	playNote(BPM,QUARTER,15);
    15ec:	2f e0       	ldi	r18, 0x0F	; 15
    15ee:	40 91 02 01 	lds	r20, 0x0102	; 0x800102 <QUARTER>
    15f2:	c7 01       	movw	r24, r14
    15f4:	b6 01       	movw	r22, r12
    15f6:	0e 94 cf 00 	call	0x19e	; 0x19e <playNote>
	playNote(BPM,QUARTER+QUARTER,17);
    15fa:	40 91 02 01 	lds	r20, 0x0102	; 0x800102 <QUARTER>
    15fe:	44 0f       	add	r20, r20
    1600:	21 e1       	ldi	r18, 0x11	; 17
    1602:	c7 01       	movw	r24, r14
    1604:	b6 01       	movw	r22, r12
    1606:	0e 94 cf 00 	call	0x19e	; 0x19e <playNote>
	
	playNote(BPM,EIGHT,13);
    160a:	2d e0       	ldi	r18, 0x0D	; 13
    160c:	40 91 01 01 	lds	r20, 0x0101	; 0x800101 <EIGHT>
    1610:	c7 01       	movw	r24, r14
    1612:	b6 01       	movw	r22, r12
    1614:	0e 94 cf 00 	call	0x19e	; 0x19e <playNote>
	playNote(BPM,EIGHT,13);
    1618:	2d e0       	ldi	r18, 0x0D	; 13
    161a:	40 91 01 01 	lds	r20, 0x0101	; 0x800101 <EIGHT>
    161e:	c7 01       	movw	r24, r14
    1620:	b6 01       	movw	r22, r12
    1622:	0e 94 cf 00 	call	0x19e	; 0x19e <playNote>
	playNote(BPM,EIGHT,13);
    1626:	2d e0       	ldi	r18, 0x0D	; 13
    1628:	40 91 01 01 	lds	r20, 0x0101	; 0x800101 <EIGHT>
    162c:	c7 01       	movw	r24, r14
    162e:	b6 01       	movw	r22, r12
    1630:	0e 94 cf 00 	call	0x19e	; 0x19e <playNote>
	playNote(BPM,EIGHT,13);
    1634:	2d e0       	ldi	r18, 0x0D	; 13
    1636:	40 91 01 01 	lds	r20, 0x0101	; 0x800101 <EIGHT>
    163a:	c7 01       	movw	r24, r14
    163c:	b6 01       	movw	r22, r12
    163e:	0e 94 cf 00 	call	0x19e	; 0x19e <playNote>
	playNote(BPM,QUARTER,20);
    1642:	24 e1       	ldi	r18, 0x14	; 20
    1644:	40 91 02 01 	lds	r20, 0x0102	; 0x800102 <QUARTER>
    1648:	c7 01       	movw	r24, r14
    164a:	b6 01       	movw	r22, r12
    164c:	0e 94 cf 00 	call	0x19e	; 0x19e <playNote>
	
	playNote(BPM,QUARTER,22);
    1650:	26 e1       	ldi	r18, 0x16	; 22
    1652:	40 91 02 01 	lds	r20, 0x0102	; 0x800102 <QUARTER>
    1656:	c7 01       	movw	r24, r14
    1658:	b6 01       	movw	r22, r12
    165a:	0e 94 cf 00 	call	0x19e	; 0x19e <playNote>
	playNote(BPM,EIGHT,20);
    165e:	24 e1       	ldi	r18, 0x14	; 20
    1660:	40 91 01 01 	lds	r20, 0x0101	; 0x800101 <EIGHT>
    1664:	c7 01       	movw	r24, r14
    1666:	b6 01       	movw	r22, r12
    1668:	0e 94 cf 00 	call	0x19e	; 0x19e <playNote>
	playNote(BPM,QUARTER,17);
    166c:	21 e1       	ldi	r18, 0x11	; 17
    166e:	40 91 02 01 	lds	r20, 0x0102	; 0x800102 <QUARTER>
    1672:	c7 01       	movw	r24, r14
    1674:	b6 01       	movw	r22, r12
    1676:	0e 94 cf 00 	call	0x19e	; 0x19e <playNote>
	playNote(BPM,EIGHT,13);
    167a:	2d e0       	ldi	r18, 0x0D	; 13
    167c:	40 91 01 01 	lds	r20, 0x0101	; 0x800101 <EIGHT>
    1680:	c7 01       	movw	r24, r14
    1682:	b6 01       	movw	r22, r12
    1684:	0e 94 cf 00 	call	0x19e	; 0x19e <playNote>
	playNote(BPM,EIGHT,17);
    1688:	21 e1       	ldi	r18, 0x11	; 17
    168a:	40 91 01 01 	lds	r20, 0x0101	; 0x800101 <EIGHT>
    168e:	c7 01       	movw	r24, r14
    1690:	b6 01       	movw	r22, r12
    1692:	0e 94 cf 00 	call	0x19e	; 0x19e <playNote>
	playNote(BPM,EIGHT,20);
    1696:	24 e1       	ldi	r18, 0x14	; 20
    1698:	40 91 01 01 	lds	r20, 0x0101	; 0x800101 <EIGHT>
    169c:	c7 01       	movw	r24, r14
    169e:	b6 01       	movw	r22, r12
    16a0:	0e 94 cf 00 	call	0x19e	; 0x19e <playNote>
	playNote(BPM,QUARTER+QUARTER,17);
    16a4:	40 91 02 01 	lds	r20, 0x0102	; 0x800102 <QUARTER>
    16a8:	44 0f       	add	r20, r20
    16aa:	21 e1       	ldi	r18, 0x11	; 17
    16ac:	c7 01       	movw	r24, r14
    16ae:	b6 01       	movw	r22, r12
    16b0:	0e 94 cf 00 	call	0x19e	; 0x19e <playNote>
	
	playNote(BPM,EIGHT,8);
    16b4:	28 e0       	ldi	r18, 0x08	; 8
    16b6:	40 91 01 01 	lds	r20, 0x0101	; 0x800101 <EIGHT>
    16ba:	c7 01       	movw	r24, r14
    16bc:	b6 01       	movw	r22, r12
    16be:	0e 94 cf 00 	call	0x19e	; 0x19e <playNote>
	playNote(BPM,EIGHT,8);
    16c2:	28 e0       	ldi	r18, 0x08	; 8
    16c4:	40 91 01 01 	lds	r20, 0x0101	; 0x800101 <EIGHT>
    16c8:	c7 01       	movw	r24, r14
    16ca:	b6 01       	movw	r22, r12
    16cc:	0e 94 cf 00 	call	0x19e	; 0x19e <playNote>
	playNote(BPM,EIGHT,8);
    16d0:	28 e0       	ldi	r18, 0x08	; 8
    16d2:	40 91 01 01 	lds	r20, 0x0101	; 0x800101 <EIGHT>
    16d6:	c7 01       	movw	r24, r14
    16d8:	b6 01       	movw	r22, r12
    16da:	0e 94 cf 00 	call	0x19e	; 0x19e <playNote>
	playNote(BPM,EIGHT,8);
    16de:	28 e0       	ldi	r18, 0x08	; 8
    16e0:	40 91 01 01 	lds	r20, 0x0101	; 0x800101 <EIGHT>
    16e4:	c7 01       	movw	r24, r14
    16e6:	b6 01       	movw	r22, r12
    16e8:	0e 94 cf 00 	call	0x19e	; 0x19e <playNote>
	playNote(BPM,QUARTER,8);
    16ec:	28 e0       	ldi	r18, 0x08	; 8
    16ee:	40 91 02 01 	lds	r20, 0x0102	; 0x800102 <QUARTER>
    16f2:	c7 01       	movw	r24, r14
    16f4:	b6 01       	movw	r22, r12
    16f6:	0e 94 cf 00 	call	0x19e	; 0x19e <playNote>
	playNote(BPM,QUARTER,15);
    16fa:	2f e0       	ldi	r18, 0x0F	; 15
    16fc:	40 91 02 01 	lds	r20, 0x0102	; 0x800102 <QUARTER>
    1700:	c7 01       	movw	r24, r14
    1702:	b6 01       	movw	r22, r12
    1704:	0e 94 cf 00 	call	0x19e	; 0x19e <playNote>
	playNote(BPM,QUARTER,13);
    1708:	2d e0       	ldi	r18, 0x0D	; 13
    170a:	40 91 02 01 	lds	r20, 0x0102	; 0x800102 <QUARTER>
    170e:	c7 01       	movw	r24, r14
    1710:	b6 01       	movw	r22, r12
    1712:	0e 94 cf 00 	call	0x19e	; 0x19e <playNote>
	
	playNote(BPM,QUARTER,22);
    1716:	26 e1       	ldi	r18, 0x16	; 22
    1718:	40 91 02 01 	lds	r20, 0x0102	; 0x800102 <QUARTER>
    171c:	c7 01       	movw	r24, r14
    171e:	b6 01       	movw	r22, r12
    1720:	0e 94 cf 00 	call	0x19e	; 0x19e <playNote>
	playNote(BPM,EIGHT,20);
    1724:	24 e1       	ldi	r18, 0x14	; 20
    1726:	40 91 01 01 	lds	r20, 0x0101	; 0x800101 <EIGHT>
    172a:	c7 01       	movw	r24, r14
    172c:	b6 01       	movw	r22, r12
    172e:	0e 94 cf 00 	call	0x19e	; 0x19e <playNote>
	playNote(BPM,QUARTER,17);
    1732:	21 e1       	ldi	r18, 0x11	; 17
    1734:	40 91 02 01 	lds	r20, 0x0102	; 0x800102 <QUARTER>
    1738:	c7 01       	movw	r24, r14
    173a:	b6 01       	movw	r22, r12
    173c:	0e 94 cf 00 	call	0x19e	; 0x19e <playNote>
	playNote(BPM,EIGHT,13);
    1740:	2d e0       	ldi	r18, 0x0D	; 13
    1742:	40 91 01 01 	lds	r20, 0x0101	; 0x800101 <EIGHT>
    1746:	c7 01       	movw	r24, r14
    1748:	b6 01       	movw	r22, r12
    174a:	0e 94 cf 00 	call	0x19e	; 0x19e <playNote>
	playNote(BPM,EIGHT,17);
    174e:	21 e1       	ldi	r18, 0x11	; 17
    1750:	40 91 01 01 	lds	r20, 0x0101	; 0x800101 <EIGHT>
    1754:	c7 01       	movw	r24, r14
    1756:	b6 01       	movw	r22, r12
    1758:	0e 94 cf 00 	call	0x19e	; 0x19e <playNote>
	playNote(BPM,EIGHT,20);
    175c:	24 e1       	ldi	r18, 0x14	; 20
    175e:	40 91 01 01 	lds	r20, 0x0101	; 0x800101 <EIGHT>
    1762:	c7 01       	movw	r24, r14
    1764:	b6 01       	movw	r22, r12
    1766:	0e 94 cf 00 	call	0x19e	; 0x19e <playNote>
	playNote(BPM,QUARTER+QUARTER,17);
    176a:	40 91 02 01 	lds	r20, 0x0102	; 0x800102 <QUARTER>
    176e:	44 0f       	add	r20, r20
    1770:	21 e1       	ldi	r18, 0x11	; 17
    1772:	c7 01       	movw	r24, r14
    1774:	b6 01       	movw	r22, r12
    1776:	0e 94 cf 00 	call	0x19e	; 0x19e <playNote>
	
	playNote(BPM,EIGHT,8);
    177a:	28 e0       	ldi	r18, 0x08	; 8
    177c:	40 91 01 01 	lds	r20, 0x0101	; 0x800101 <EIGHT>
    1780:	c7 01       	movw	r24, r14
    1782:	b6 01       	movw	r22, r12
    1784:	0e 94 cf 00 	call	0x19e	; 0x19e <playNote>
	playNote(BPM,EIGHT,8);
    1788:	28 e0       	ldi	r18, 0x08	; 8
    178a:	40 91 01 01 	lds	r20, 0x0101	; 0x800101 <EIGHT>
    178e:	c7 01       	movw	r24, r14
    1790:	b6 01       	movw	r22, r12
    1792:	0e 94 cf 00 	call	0x19e	; 0x19e <playNote>
	playNote(BPM,EIGHT,8);
    1796:	28 e0       	ldi	r18, 0x08	; 8
    1798:	40 91 01 01 	lds	r20, 0x0101	; 0x800101 <EIGHT>
    179c:	c7 01       	movw	r24, r14
    179e:	b6 01       	movw	r22, r12
    17a0:	0e 94 cf 00 	call	0x19e	; 0x19e <playNote>
	playNote(BPM,EIGHT,8);
    17a4:	28 e0       	ldi	r18, 0x08	; 8
    17a6:	40 91 01 01 	lds	r20, 0x0101	; 0x800101 <EIGHT>
    17aa:	c7 01       	movw	r24, r14
    17ac:	b6 01       	movw	r22, r12
    17ae:	0e 94 cf 00 	call	0x19e	; 0x19e <playNote>
	playNote(BPM,QUARTER,8);
    17b2:	28 e0       	ldi	r18, 0x08	; 8
    17b4:	40 91 02 01 	lds	r20, 0x0102	; 0x800102 <QUARTER>
    17b8:	c7 01       	movw	r24, r14
    17ba:	b6 01       	movw	r22, r12
    17bc:	0e 94 cf 00 	call	0x19e	; 0x19e <playNote>
	playNote(BPM,QUARTER,15);
    17c0:	2f e0       	ldi	r18, 0x0F	; 15
    17c2:	40 91 02 01 	lds	r20, 0x0102	; 0x800102 <QUARTER>
    17c6:	c7 01       	movw	r24, r14
    17c8:	b6 01       	movw	r22, r12
    17ca:	0e 94 cf 00 	call	0x19e	; 0x19e <playNote>
	playNote(BPM,QUARTER,13);
    17ce:	2d e0       	ldi	r18, 0x0D	; 13
    17d0:	40 91 02 01 	lds	r20, 0x0102	; 0x800102 <QUARTER>
    17d4:	c7 01       	movw	r24, r14
    17d6:	b6 01       	movw	r22, r12
    17d8:	0e 94 cf 00 	call	0x19e	; 0x19e <playNote>
	
}
    17dc:	ff 90       	pop	r15
    17de:	ef 90       	pop	r14
    17e0:	df 90       	pop	r13
    17e2:	cf 90       	pop	r12
    17e4:	08 95       	ret

000017e6 <RUSHE>:

void RUSHE(float BPM){
    17e6:	cf 92       	push	r12
    17e8:	df 92       	push	r13
    17ea:	ef 92       	push	r14
    17ec:	ff 92       	push	r15
    17ee:	6b 01       	movw	r12, r22
    17f0:	7c 01       	movw	r14, r24
	playNote(BPM,HALF+HALF+HALF+HALF+HALF+HALF+HALF,12);
    17f2:	80 91 03 01 	lds	r24, 0x0103	; 0x800103 <HALF>
    17f6:	48 2f       	mov	r20, r24
    17f8:	44 0f       	add	r20, r20
    17fa:	48 0f       	add	r20, r24
    17fc:	48 0f       	add	r20, r24
    17fe:	48 0f       	add	r20, r24
    1800:	48 0f       	add	r20, r24
    1802:	48 0f       	add	r20, r24
    1804:	2c e0       	ldi	r18, 0x0C	; 12
    1806:	c7 01       	movw	r24, r14
    1808:	b6 01       	movw	r22, r12
    180a:	0e 94 cf 00 	call	0x19e	; 0x19e <playNote>
	playNote(BPM,HALF+HALF+HALF+HALF+HALF+SIXTEENTH,12);
    180e:	80 91 03 01 	lds	r24, 0x0103	; 0x800103 <HALF>
    1812:	48 2f       	mov	r20, r24
    1814:	44 0f       	add	r20, r20
    1816:	48 0f       	add	r20, r24
    1818:	48 0f       	add	r20, r24
    181a:	84 0f       	add	r24, r20
    181c:	40 91 00 01 	lds	r20, 0x0100	; 0x800100 <__DATA_REGION_ORIGIN__>
    1820:	48 0f       	add	r20, r24
    1822:	2c e0       	ldi	r18, 0x0C	; 12
    1824:	c7 01       	movw	r24, r14
    1826:	b6 01       	movw	r22, r12
    1828:	0e 94 cf 00 	call	0x19e	; 0x19e <playNote>
	playNote(BPM,HALF+HALF+HALF+HALF+QUARTER+SIXTEENTH,12);
    182c:	80 91 03 01 	lds	r24, 0x0103	; 0x800103 <HALF>
    1830:	48 2f       	mov	r20, r24
    1832:	44 0f       	add	r20, r20
    1834:	48 0f       	add	r20, r24
    1836:	84 0f       	add	r24, r20
    1838:	40 91 02 01 	lds	r20, 0x0102	; 0x800102 <QUARTER>
    183c:	84 0f       	add	r24, r20
    183e:	90 91 00 01 	lds	r25, 0x0100	; 0x800100 <__DATA_REGION_ORIGIN__>
    1842:	48 2f       	mov	r20, r24
    1844:	49 0f       	add	r20, r25
    1846:	2c e0       	ldi	r18, 0x0C	; 12
    1848:	c7 01       	movw	r24, r14
    184a:	b6 01       	movw	r22, r12
    184c:	0e 94 cf 00 	call	0x19e	; 0x19e <playNote>
	
	playNote(BPM,HALF+HALF+HALF+HALF+QUARTER+EIGHT,12);
    1850:	80 91 03 01 	lds	r24, 0x0103	; 0x800103 <HALF>
    1854:	48 2f       	mov	r20, r24
    1856:	44 0f       	add	r20, r20
    1858:	48 0f       	add	r20, r24
    185a:	84 0f       	add	r24, r20
    185c:	40 91 02 01 	lds	r20, 0x0102	; 0x800102 <QUARTER>
    1860:	84 0f       	add	r24, r20
    1862:	90 91 01 01 	lds	r25, 0x0101	; 0x800101 <EIGHT>
    1866:	48 2f       	mov	r20, r24
    1868:	49 0f       	add	r20, r25
    186a:	2c e0       	ldi	r18, 0x0C	; 12
    186c:	c7 01       	movw	r24, r14
    186e:	b6 01       	movw	r22, r12
    1870:	0e 94 cf 00 	call	0x19e	; 0x19e <playNote>
	playNote(BPM,HALF+HALF+HALF+ HALF+QUARTER,12);
    1874:	80 91 03 01 	lds	r24, 0x0103	; 0x800103 <HALF>
    1878:	48 2f       	mov	r20, r24
    187a:	44 0f       	add	r20, r20
    187c:	48 0f       	add	r20, r24
    187e:	84 0f       	add	r24, r20
    1880:	40 91 02 01 	lds	r20, 0x0102	; 0x800102 <QUARTER>
    1884:	48 0f       	add	r20, r24
    1886:	2c e0       	ldi	r18, 0x0C	; 12
    1888:	c7 01       	movw	r24, r14
    188a:	b6 01       	movw	r22, r12
    188c:	0e 94 cf 00 	call	0x19e	; 0x19e <playNote>
	playNote(BPM,HALF+HALF+HALF+EIGHT,12);
    1890:	40 91 03 01 	lds	r20, 0x0103	; 0x800103 <HALF>
    1894:	84 2f       	mov	r24, r20
    1896:	88 0f       	add	r24, r24
    1898:	48 0f       	add	r20, r24
    189a:	80 91 01 01 	lds	r24, 0x0101	; 0x800101 <EIGHT>
    189e:	48 0f       	add	r20, r24
    18a0:	2c e0       	ldi	r18, 0x0C	; 12
    18a2:	c7 01       	movw	r24, r14
    18a4:	b6 01       	movw	r22, r12
    18a6:	0e 94 cf 00 	call	0x19e	; 0x19e <playNote>
	playNote(BPM,HALF+HALF+QUARTER,12);
    18aa:	40 91 03 01 	lds	r20, 0x0103	; 0x800103 <HALF>
    18ae:	44 0f       	add	r20, r20
    18b0:	80 91 02 01 	lds	r24, 0x0102	; 0x800102 <QUARTER>
    18b4:	48 0f       	add	r20, r24
    18b6:	2c e0       	ldi	r18, 0x0C	; 12
    18b8:	c7 01       	movw	r24, r14
    18ba:	b6 01       	movw	r22, r12
    18bc:	0e 94 cf 00 	call	0x19e	; 0x19e <playNote>
	playNote(BPM,HALF+HALF+EIGHT,12);
    18c0:	40 91 03 01 	lds	r20, 0x0103	; 0x800103 <HALF>
    18c4:	44 0f       	add	r20, r20
    18c6:	80 91 01 01 	lds	r24, 0x0101	; 0x800101 <EIGHT>
    18ca:	48 0f       	add	r20, r24
    18cc:	2c e0       	ldi	r18, 0x0C	; 12
    18ce:	c7 01       	movw	r24, r14
    18d0:	b6 01       	movw	r22, r12
    18d2:	0e 94 cf 00 	call	0x19e	; 0x19e <playNote>
	playNote(BPM,HALF+HALF+EIGHT,12);
    18d6:	40 91 03 01 	lds	r20, 0x0103	; 0x800103 <HALF>
    18da:	44 0f       	add	r20, r20
    18dc:	80 91 01 01 	lds	r24, 0x0101	; 0x800101 <EIGHT>
    18e0:	48 0f       	add	r20, r24
    18e2:	2c e0       	ldi	r18, 0x0C	; 12
    18e4:	c7 01       	movw	r24, r14
    18e6:	b6 01       	movw	r22, r12
    18e8:	0e 94 cf 00 	call	0x19e	; 0x19e <playNote>
	playNote(BPM,HALF+HALF+SIXTEENTH,12);
    18ec:	40 91 03 01 	lds	r20, 0x0103	; 0x800103 <HALF>
    18f0:	44 0f       	add	r20, r20
    18f2:	80 91 00 01 	lds	r24, 0x0100	; 0x800100 <__DATA_REGION_ORIGIN__>
    18f6:	48 0f       	add	r20, r24
    18f8:	2c e0       	ldi	r18, 0x0C	; 12
    18fa:	c7 01       	movw	r24, r14
    18fc:	b6 01       	movw	r22, r12
    18fe:	0e 94 cf 00 	call	0x19e	; 0x19e <playNote>
	playNote(BPM,HALF+HALF+SIXTEENTH,12);
    1902:	40 91 03 01 	lds	r20, 0x0103	; 0x800103 <HALF>
    1906:	44 0f       	add	r20, r20
    1908:	80 91 00 01 	lds	r24, 0x0100	; 0x800100 <__DATA_REGION_ORIGIN__>
    190c:	48 0f       	add	r20, r24
    190e:	2c e0       	ldi	r18, 0x0C	; 12
    1910:	c7 01       	movw	r24, r14
    1912:	b6 01       	movw	r22, r12
    1914:	0e 94 cf 00 	call	0x19e	; 0x19e <playNote>
	playNote(BPM,HALF+HALF,12);
    1918:	40 91 03 01 	lds	r20, 0x0103	; 0x800103 <HALF>
    191c:	44 0f       	add	r20, r20
    191e:	2c e0       	ldi	r18, 0x0C	; 12
    1920:	c7 01       	movw	r24, r14
    1922:	b6 01       	movw	r22, r12
    1924:	0e 94 cf 00 	call	0x19e	; 0x19e <playNote>
	playNote(BPM,HALF+HALF,12);
    1928:	40 91 03 01 	lds	r20, 0x0103	; 0x800103 <HALF>
    192c:	44 0f       	add	r20, r20
    192e:	2c e0       	ldi	r18, 0x0C	; 12
    1930:	c7 01       	movw	r24, r14
    1932:	b6 01       	movw	r22, r12
    1934:	0e 94 cf 00 	call	0x19e	; 0x19e <playNote>
	playNote(BPM,HALF+QUARTER,12);
    1938:	40 91 03 01 	lds	r20, 0x0103	; 0x800103 <HALF>
    193c:	80 91 02 01 	lds	r24, 0x0102	; 0x800102 <QUARTER>
    1940:	48 0f       	add	r20, r24
    1942:	2c e0       	ldi	r18, 0x0C	; 12
    1944:	c7 01       	movw	r24, r14
    1946:	b6 01       	movw	r22, r12
    1948:	0e 94 cf 00 	call	0x19e	; 0x19e <playNote>
	playNote(BPM,HALF+QUARTER,12);
    194c:	40 91 03 01 	lds	r20, 0x0103	; 0x800103 <HALF>
    1950:	80 91 02 01 	lds	r24, 0x0102	; 0x800102 <QUARTER>
    1954:	48 0f       	add	r20, r24
    1956:	2c e0       	ldi	r18, 0x0C	; 12
    1958:	c7 01       	movw	r24, r14
    195a:	b6 01       	movw	r22, r12
    195c:	0e 94 cf 00 	call	0x19e	; 0x19e <playNote>
	playNote(BPM,HALF+QUARTER,12);
    1960:	40 91 03 01 	lds	r20, 0x0103	; 0x800103 <HALF>
    1964:	80 91 02 01 	lds	r24, 0x0102	; 0x800102 <QUARTER>
    1968:	48 0f       	add	r20, r24
    196a:	2c e0       	ldi	r18, 0x0C	; 12
    196c:	c7 01       	movw	r24, r14
    196e:	b6 01       	movw	r22, r12
    1970:	0e 94 cf 00 	call	0x19e	; 0x19e <playNote>
	playNote(BPM,QUARTER,12);
    1974:	2c e0       	ldi	r18, 0x0C	; 12
    1976:	40 91 02 01 	lds	r20, 0x0102	; 0x800102 <QUARTER>
    197a:	c7 01       	movw	r24, r14
    197c:	b6 01       	movw	r22, r12
    197e:	0e 94 cf 00 	call	0x19e	; 0x19e <playNote>
	playNote(BPM,QUARTER,12);
    1982:	2c e0       	ldi	r18, 0x0C	; 12
    1984:	40 91 02 01 	lds	r20, 0x0102	; 0x800102 <QUARTER>
    1988:	c7 01       	movw	r24, r14
    198a:	b6 01       	movw	r22, r12
    198c:	0e 94 cf 00 	call	0x19e	; 0x19e <playNote>
	playNote(BPM,QUARTER,12);
    1990:	2c e0       	ldi	r18, 0x0C	; 12
    1992:	40 91 02 01 	lds	r20, 0x0102	; 0x800102 <QUARTER>
    1996:	c7 01       	movw	r24, r14
    1998:	b6 01       	movw	r22, r12
    199a:	0e 94 cf 00 	call	0x19e	; 0x19e <playNote>
	playNote(BPM,QUARTER,12);
    199e:	2c e0       	ldi	r18, 0x0C	; 12
    19a0:	40 91 02 01 	lds	r20, 0x0102	; 0x800102 <QUARTER>
    19a4:	c7 01       	movw	r24, r14
    19a6:	b6 01       	movw	r22, r12
    19a8:	0e 94 cf 00 	call	0x19e	; 0x19e <playNote>
	playNote(BPM,QUARTER,12);
    19ac:	2c e0       	ldi	r18, 0x0C	; 12
    19ae:	40 91 02 01 	lds	r20, 0x0102	; 0x800102 <QUARTER>
    19b2:	c7 01       	movw	r24, r14
    19b4:	b6 01       	movw	r22, r12
    19b6:	0e 94 cf 00 	call	0x19e	; 0x19e <playNote>
	playNote(BPM,EIGHT,12);
    19ba:	2c e0       	ldi	r18, 0x0C	; 12
    19bc:	40 91 01 01 	lds	r20, 0x0101	; 0x800101 <EIGHT>
    19c0:	c7 01       	movw	r24, r14
    19c2:	b6 01       	movw	r22, r12
    19c4:	0e 94 cf 00 	call	0x19e	; 0x19e <playNote>
	playNote(BPM,EIGHT,12);
    19c8:	2c e0       	ldi	r18, 0x0C	; 12
    19ca:	40 91 01 01 	lds	r20, 0x0101	; 0x800101 <EIGHT>
    19ce:	c7 01       	movw	r24, r14
    19d0:	b6 01       	movw	r22, r12
    19d2:	0e 94 cf 00 	call	0x19e	; 0x19e <playNote>
	playNote(BPM,EIGHT,12);
    19d6:	2c e0       	ldi	r18, 0x0C	; 12
    19d8:	40 91 01 01 	lds	r20, 0x0101	; 0x800101 <EIGHT>
    19dc:	c7 01       	movw	r24, r14
    19de:	b6 01       	movw	r22, r12
    19e0:	0e 94 cf 00 	call	0x19e	; 0x19e <playNote>
	playNote(BPM,EIGHT,12);
    19e4:	2c e0       	ldi	r18, 0x0C	; 12
    19e6:	40 91 01 01 	lds	r20, 0x0101	; 0x800101 <EIGHT>
    19ea:	c7 01       	movw	r24, r14
    19ec:	b6 01       	movw	r22, r12
    19ee:	0e 94 cf 00 	call	0x19e	; 0x19e <playNote>
	playNote(BPM,EIGHT,12);
    19f2:	2c e0       	ldi	r18, 0x0C	; 12
    19f4:	40 91 01 01 	lds	r20, 0x0101	; 0x800101 <EIGHT>
    19f8:	c7 01       	movw	r24, r14
    19fa:	b6 01       	movw	r22, r12
    19fc:	0e 94 cf 00 	call	0x19e	; 0x19e <playNote>
	playNote(BPM,EIGHT,12);
    1a00:	2c e0       	ldi	r18, 0x0C	; 12
    1a02:	40 91 01 01 	lds	r20, 0x0101	; 0x800101 <EIGHT>
    1a06:	c7 01       	movw	r24, r14
    1a08:	b6 01       	movw	r22, r12
    1a0a:	0e 94 cf 00 	call	0x19e	; 0x19e <playNote>
	playNote(BPM,EIGHT,12);
    1a0e:	2c e0       	ldi	r18, 0x0C	; 12
    1a10:	40 91 01 01 	lds	r20, 0x0101	; 0x800101 <EIGHT>
    1a14:	c7 01       	movw	r24, r14
    1a16:	b6 01       	movw	r22, r12
    1a18:	0e 94 cf 00 	call	0x19e	; 0x19e <playNote>
	playNote(BPM,EIGHT,12);
    1a1c:	2c e0       	ldi	r18, 0x0C	; 12
    1a1e:	40 91 01 01 	lds	r20, 0x0101	; 0x800101 <EIGHT>
    1a22:	c7 01       	movw	r24, r14
    1a24:	b6 01       	movw	r22, r12
    1a26:	0e 94 cf 00 	call	0x19e	; 0x19e <playNote>
	playNote(BPM,EIGHT,12);
    1a2a:	2c e0       	ldi	r18, 0x0C	; 12
    1a2c:	40 91 01 01 	lds	r20, 0x0101	; 0x800101 <EIGHT>
    1a30:	c7 01       	movw	r24, r14
    1a32:	b6 01       	movw	r22, r12
    1a34:	0e 94 cf 00 	call	0x19e	; 0x19e <playNote>
	playNote(BPM,EIGHT,12);
    1a38:	2c e0       	ldi	r18, 0x0C	; 12
    1a3a:	40 91 01 01 	lds	r20, 0x0101	; 0x800101 <EIGHT>
    1a3e:	c7 01       	movw	r24, r14
    1a40:	b6 01       	movw	r22, r12
    1a42:	0e 94 cf 00 	call	0x19e	; 0x19e <playNote>
	playNote(BPM,EIGHT,12);
    1a46:	2c e0       	ldi	r18, 0x0C	; 12
    1a48:	40 91 01 01 	lds	r20, 0x0101	; 0x800101 <EIGHT>
    1a4c:	c7 01       	movw	r24, r14
    1a4e:	b6 01       	movw	r22, r12
    1a50:	0e 94 cf 00 	call	0x19e	; 0x19e <playNote>
	playNote(BPM,EIGHT,12);
    1a54:	2c e0       	ldi	r18, 0x0C	; 12
    1a56:	40 91 01 01 	lds	r20, 0x0101	; 0x800101 <EIGHT>
    1a5a:	c7 01       	movw	r24, r14
    1a5c:	b6 01       	movw	r22, r12
    1a5e:	0e 94 cf 00 	call	0x19e	; 0x19e <playNote>
	playNote(BPM,SIXTEENTH+THIRTYSECONDTH,12);
    1a62:	40 91 00 01 	lds	r20, 0x0100	; 0x800100 <__DATA_REGION_ORIGIN__>
    1a66:	80 91 04 01 	lds	r24, 0x0104	; 0x800104 <__data_end>
    1a6a:	48 0f       	add	r20, r24
    1a6c:	2c e0       	ldi	r18, 0x0C	; 12
    1a6e:	c7 01       	movw	r24, r14
    1a70:	b6 01       	movw	r22, r12
    1a72:	0e 94 cf 00 	call	0x19e	; 0x19e <playNote>
	playNote(BPM,SIXTEENTH+THIRTYSECONDTH,12);
    1a76:	40 91 00 01 	lds	r20, 0x0100	; 0x800100 <__DATA_REGION_ORIGIN__>
    1a7a:	80 91 04 01 	lds	r24, 0x0104	; 0x800104 <__data_end>
    1a7e:	48 0f       	add	r20, r24
    1a80:	2c e0       	ldi	r18, 0x0C	; 12
    1a82:	c7 01       	movw	r24, r14
    1a84:	b6 01       	movw	r22, r12
    1a86:	0e 94 cf 00 	call	0x19e	; 0x19e <playNote>
	playNote(BPM,SIXTEENTH+THIRTYSECONDTH,12);
    1a8a:	40 91 00 01 	lds	r20, 0x0100	; 0x800100 <__DATA_REGION_ORIGIN__>
    1a8e:	80 91 04 01 	lds	r24, 0x0104	; 0x800104 <__data_end>
    1a92:	48 0f       	add	r20, r24
    1a94:	2c e0       	ldi	r18, 0x0C	; 12
    1a96:	c7 01       	movw	r24, r14
    1a98:	b6 01       	movw	r22, r12
    1a9a:	0e 94 cf 00 	call	0x19e	; 0x19e <playNote>
	playNote(BPM,SIXTEENTH+THIRTYSECONDTH,12);
    1a9e:	40 91 00 01 	lds	r20, 0x0100	; 0x800100 <__DATA_REGION_ORIGIN__>
    1aa2:	80 91 04 01 	lds	r24, 0x0104	; 0x800104 <__data_end>
    1aa6:	48 0f       	add	r20, r24
    1aa8:	2c e0       	ldi	r18, 0x0C	; 12
    1aaa:	c7 01       	movw	r24, r14
    1aac:	b6 01       	movw	r22, r12
    1aae:	0e 94 cf 00 	call	0x19e	; 0x19e <playNote>
	playNote(BPM,SIXTEENTH+THIRTYSECONDTH,12);
    1ab2:	40 91 00 01 	lds	r20, 0x0100	; 0x800100 <__DATA_REGION_ORIGIN__>
    1ab6:	80 91 04 01 	lds	r24, 0x0104	; 0x800104 <__data_end>
    1aba:	48 0f       	add	r20, r24
    1abc:	2c e0       	ldi	r18, 0x0C	; 12
    1abe:	c7 01       	movw	r24, r14
    1ac0:	b6 01       	movw	r22, r12
    1ac2:	0e 94 cf 00 	call	0x19e	; 0x19e <playNote>
	playNote(BPM,SIXTEENTH+THIRTYSECONDTH,12);
    1ac6:	40 91 00 01 	lds	r20, 0x0100	; 0x800100 <__DATA_REGION_ORIGIN__>
    1aca:	80 91 04 01 	lds	r24, 0x0104	; 0x800104 <__data_end>
    1ace:	48 0f       	add	r20, r24
    1ad0:	2c e0       	ldi	r18, 0x0C	; 12
    1ad2:	c7 01       	movw	r24, r14
    1ad4:	b6 01       	movw	r22, r12
    1ad6:	0e 94 cf 00 	call	0x19e	; 0x19e <playNote>
	playNote(BPM,SIXTEENTH+THIRTYSECONDTH,12);
    1ada:	40 91 00 01 	lds	r20, 0x0100	; 0x800100 <__DATA_REGION_ORIGIN__>
    1ade:	80 91 04 01 	lds	r24, 0x0104	; 0x800104 <__data_end>
    1ae2:	48 0f       	add	r20, r24
    1ae4:	2c e0       	ldi	r18, 0x0C	; 12
    1ae6:	c7 01       	movw	r24, r14
    1ae8:	b6 01       	movw	r22, r12
    1aea:	0e 94 cf 00 	call	0x19e	; 0x19e <playNote>
	playNote(BPM,SIXTEENTH+THIRTYSECONDTH,12);
    1aee:	40 91 00 01 	lds	r20, 0x0100	; 0x800100 <__DATA_REGION_ORIGIN__>
    1af2:	80 91 04 01 	lds	r24, 0x0104	; 0x800104 <__data_end>
    1af6:	48 0f       	add	r20, r24
    1af8:	2c e0       	ldi	r18, 0x0C	; 12
    1afa:	c7 01       	movw	r24, r14
    1afc:	b6 01       	movw	r22, r12
    1afe:	0e 94 cf 00 	call	0x19e	; 0x19e <playNote>
	playNote(BPM,SIXTEENTH+THIRTYSECONDTH,12);
    1b02:	40 91 00 01 	lds	r20, 0x0100	; 0x800100 <__DATA_REGION_ORIGIN__>
    1b06:	80 91 04 01 	lds	r24, 0x0104	; 0x800104 <__data_end>
    1b0a:	48 0f       	add	r20, r24
    1b0c:	2c e0       	ldi	r18, 0x0C	; 12
    1b0e:	c7 01       	movw	r24, r14
    1b10:	b6 01       	movw	r22, r12
    1b12:	0e 94 cf 00 	call	0x19e	; 0x19e <playNote>
	playNote(BPM,SIXTEENTH+THIRTYSECONDTH,12);
    1b16:	40 91 00 01 	lds	r20, 0x0100	; 0x800100 <__DATA_REGION_ORIGIN__>
    1b1a:	80 91 04 01 	lds	r24, 0x0104	; 0x800104 <__data_end>
    1b1e:	48 0f       	add	r20, r24
    1b20:	2c e0       	ldi	r18, 0x0C	; 12
    1b22:	c7 01       	movw	r24, r14
    1b24:	b6 01       	movw	r22, r12
    1b26:	0e 94 cf 00 	call	0x19e	; 0x19e <playNote>
	playNote(BPM,SIXTEENTH+THIRTYSECONDTH,12);
    1b2a:	40 91 00 01 	lds	r20, 0x0100	; 0x800100 <__DATA_REGION_ORIGIN__>
    1b2e:	80 91 04 01 	lds	r24, 0x0104	; 0x800104 <__data_end>
    1b32:	48 0f       	add	r20, r24
    1b34:	2c e0       	ldi	r18, 0x0C	; 12
    1b36:	c7 01       	movw	r24, r14
    1b38:	b6 01       	movw	r22, r12
    1b3a:	0e 94 cf 00 	call	0x19e	; 0x19e <playNote>
	playNote(BPM,SIXTEENTH+THIRTYSECONDTH,12);
    1b3e:	40 91 00 01 	lds	r20, 0x0100	; 0x800100 <__DATA_REGION_ORIGIN__>
    1b42:	80 91 04 01 	lds	r24, 0x0104	; 0x800104 <__data_end>
    1b46:	48 0f       	add	r20, r24
    1b48:	2c e0       	ldi	r18, 0x0C	; 12
    1b4a:	c7 01       	movw	r24, r14
    1b4c:	b6 01       	movw	r22, r12
    1b4e:	0e 94 cf 00 	call	0x19e	; 0x19e <playNote>
	playNote(BPM,SIXTEENTH+THIRTYSECONDTH,12);
    1b52:	40 91 00 01 	lds	r20, 0x0100	; 0x800100 <__DATA_REGION_ORIGIN__>
    1b56:	80 91 04 01 	lds	r24, 0x0104	; 0x800104 <__data_end>
    1b5a:	48 0f       	add	r20, r24
    1b5c:	2c e0       	ldi	r18, 0x0C	; 12
    1b5e:	c7 01       	movw	r24, r14
    1b60:	b6 01       	movw	r22, r12
    1b62:	0e 94 cf 00 	call	0x19e	; 0x19e <playNote>
	playNote(BPM,SIXTEENTH+THIRTYSECONDTH,12);
    1b66:	40 91 00 01 	lds	r20, 0x0100	; 0x800100 <__DATA_REGION_ORIGIN__>
    1b6a:	80 91 04 01 	lds	r24, 0x0104	; 0x800104 <__data_end>
    1b6e:	48 0f       	add	r20, r24
    1b70:	2c e0       	ldi	r18, 0x0C	; 12
    1b72:	c7 01       	movw	r24, r14
    1b74:	b6 01       	movw	r22, r12
    1b76:	0e 94 cf 00 	call	0x19e	; 0x19e <playNote>
	playNote(BPM,SIXTEENTH+THIRTYSECONDTH,12);
    1b7a:	40 91 00 01 	lds	r20, 0x0100	; 0x800100 <__DATA_REGION_ORIGIN__>
    1b7e:	80 91 04 01 	lds	r24, 0x0104	; 0x800104 <__data_end>
    1b82:	48 0f       	add	r20, r24
    1b84:	2c e0       	ldi	r18, 0x0C	; 12
    1b86:	c7 01       	movw	r24, r14
    1b88:	b6 01       	movw	r22, r12
    1b8a:	0e 94 cf 00 	call	0x19e	; 0x19e <playNote>
	playNote(BPM,SIXTEENTH+THIRTYSECONDTH,12);
    1b8e:	40 91 00 01 	lds	r20, 0x0100	; 0x800100 <__DATA_REGION_ORIGIN__>
    1b92:	80 91 04 01 	lds	r24, 0x0104	; 0x800104 <__data_end>
    1b96:	48 0f       	add	r20, r24
    1b98:	2c e0       	ldi	r18, 0x0C	; 12
    1b9a:	c7 01       	movw	r24, r14
    1b9c:	b6 01       	movw	r22, r12
    1b9e:	0e 94 cf 00 	call	0x19e	; 0x19e <playNote>
	playNote(BPM,SIXTEENTH+THIRTYSECONDTH,12);
    1ba2:	40 91 00 01 	lds	r20, 0x0100	; 0x800100 <__DATA_REGION_ORIGIN__>
    1ba6:	80 91 04 01 	lds	r24, 0x0104	; 0x800104 <__data_end>
    1baa:	48 0f       	add	r20, r24
    1bac:	2c e0       	ldi	r18, 0x0C	; 12
    1bae:	c7 01       	movw	r24, r14
    1bb0:	b6 01       	movw	r22, r12
    1bb2:	0e 94 cf 00 	call	0x19e	; 0x19e <playNote>
	playNote(BPM,SIXTEENTH+THIRTYSECONDTH,12);
    1bb6:	40 91 00 01 	lds	r20, 0x0100	; 0x800100 <__DATA_REGION_ORIGIN__>
    1bba:	80 91 04 01 	lds	r24, 0x0104	; 0x800104 <__data_end>
    1bbe:	48 0f       	add	r20, r24
    1bc0:	2c e0       	ldi	r18, 0x0C	; 12
    1bc2:	c7 01       	movw	r24, r14
    1bc4:	b6 01       	movw	r22, r12
    1bc6:	0e 94 cf 00 	call	0x19e	; 0x19e <playNote>
	playNote(BPM,SIXTEENTH+THIRTYSECONDTH,12);
    1bca:	40 91 00 01 	lds	r20, 0x0100	; 0x800100 <__DATA_REGION_ORIGIN__>
    1bce:	80 91 04 01 	lds	r24, 0x0104	; 0x800104 <__data_end>
    1bd2:	48 0f       	add	r20, r24
    1bd4:	2c e0       	ldi	r18, 0x0C	; 12
    1bd6:	c7 01       	movw	r24, r14
    1bd8:	b6 01       	movw	r22, r12
    1bda:	0e 94 cf 00 	call	0x19e	; 0x19e <playNote>
	playNote(BPM,SIXTEENTH+THIRTYSECONDTH,12);
    1bde:	40 91 00 01 	lds	r20, 0x0100	; 0x800100 <__DATA_REGION_ORIGIN__>
    1be2:	80 91 04 01 	lds	r24, 0x0104	; 0x800104 <__data_end>
    1be6:	48 0f       	add	r20, r24
    1be8:	2c e0       	ldi	r18, 0x0C	; 12
    1bea:	c7 01       	movw	r24, r14
    1bec:	b6 01       	movw	r22, r12
    1bee:	0e 94 cf 00 	call	0x19e	; 0x19e <playNote>
	playNote(BPM,SIXTEENTH+THIRTYSECONDTH,12);
    1bf2:	40 91 00 01 	lds	r20, 0x0100	; 0x800100 <__DATA_REGION_ORIGIN__>
    1bf6:	80 91 04 01 	lds	r24, 0x0104	; 0x800104 <__data_end>
    1bfa:	48 0f       	add	r20, r24
    1bfc:	2c e0       	ldi	r18, 0x0C	; 12
    1bfe:	c7 01       	movw	r24, r14
    1c00:	b6 01       	movw	r22, r12
    1c02:	0e 94 cf 00 	call	0x19e	; 0x19e <playNote>
	playNote(BPM,SIXTEENTH,12);
    1c06:	2c e0       	ldi	r18, 0x0C	; 12
    1c08:	40 91 00 01 	lds	r20, 0x0100	; 0x800100 <__DATA_REGION_ORIGIN__>
    1c0c:	c7 01       	movw	r24, r14
    1c0e:	b6 01       	movw	r22, r12
    1c10:	0e 94 cf 00 	call	0x19e	; 0x19e <playNote>
	playNote(BPM,SIXTEENTH,12);
    1c14:	2c e0       	ldi	r18, 0x0C	; 12
    1c16:	40 91 00 01 	lds	r20, 0x0100	; 0x800100 <__DATA_REGION_ORIGIN__>
    1c1a:	c7 01       	movw	r24, r14
    1c1c:	b6 01       	movw	r22, r12
    1c1e:	0e 94 cf 00 	call	0x19e	; 0x19e <playNote>
	playNote(BPM,SIXTEENTH,12);
    1c22:	2c e0       	ldi	r18, 0x0C	; 12
    1c24:	40 91 00 01 	lds	r20, 0x0100	; 0x800100 <__DATA_REGION_ORIGIN__>
    1c28:	c7 01       	movw	r24, r14
    1c2a:	b6 01       	movw	r22, r12
    1c2c:	0e 94 cf 00 	call	0x19e	; 0x19e <playNote>
	playNote(BPM,SIXTEENTH,12);
    1c30:	2c e0       	ldi	r18, 0x0C	; 12
    1c32:	40 91 00 01 	lds	r20, 0x0100	; 0x800100 <__DATA_REGION_ORIGIN__>
    1c36:	c7 01       	movw	r24, r14
    1c38:	b6 01       	movw	r22, r12
    1c3a:	0e 94 cf 00 	call	0x19e	; 0x19e <playNote>
	playNote(BPM,SIXTEENTH,12);
    1c3e:	2c e0       	ldi	r18, 0x0C	; 12
    1c40:	40 91 00 01 	lds	r20, 0x0100	; 0x800100 <__DATA_REGION_ORIGIN__>
    1c44:	c7 01       	movw	r24, r14
    1c46:	b6 01       	movw	r22, r12
    1c48:	0e 94 cf 00 	call	0x19e	; 0x19e <playNote>
	playNote(BPM,SIXTEENTH,12);
    1c4c:	2c e0       	ldi	r18, 0x0C	; 12
    1c4e:	40 91 00 01 	lds	r20, 0x0100	; 0x800100 <__DATA_REGION_ORIGIN__>
    1c52:	c7 01       	movw	r24, r14
    1c54:	b6 01       	movw	r22, r12
    1c56:	0e 94 cf 00 	call	0x19e	; 0x19e <playNote>
	playNote(BPM,SIXTEENTH,12);
    1c5a:	2c e0       	ldi	r18, 0x0C	; 12
    1c5c:	40 91 00 01 	lds	r20, 0x0100	; 0x800100 <__DATA_REGION_ORIGIN__>
    1c60:	c7 01       	movw	r24, r14
    1c62:	b6 01       	movw	r22, r12
    1c64:	0e 94 cf 00 	call	0x19e	; 0x19e <playNote>
	playNote(BPM,SIXTEENTH,12);
    1c68:	2c e0       	ldi	r18, 0x0C	; 12
    1c6a:	40 91 00 01 	lds	r20, 0x0100	; 0x800100 <__DATA_REGION_ORIGIN__>
    1c6e:	c7 01       	movw	r24, r14
    1c70:	b6 01       	movw	r22, r12
    1c72:	0e 94 cf 00 	call	0x19e	; 0x19e <playNote>
	playNote(BPM,SIXTEENTH,12);
    1c76:	2c e0       	ldi	r18, 0x0C	; 12
    1c78:	40 91 00 01 	lds	r20, 0x0100	; 0x800100 <__DATA_REGION_ORIGIN__>
    1c7c:	c7 01       	movw	r24, r14
    1c7e:	b6 01       	movw	r22, r12
    1c80:	0e 94 cf 00 	call	0x19e	; 0x19e <playNote>
	playNote(BPM,SIXTEENTH,12);
    1c84:	2c e0       	ldi	r18, 0x0C	; 12
    1c86:	40 91 00 01 	lds	r20, 0x0100	; 0x800100 <__DATA_REGION_ORIGIN__>
    1c8a:	c7 01       	movw	r24, r14
    1c8c:	b6 01       	movw	r22, r12
    1c8e:	0e 94 cf 00 	call	0x19e	; 0x19e <playNote>
	playNote(BPM,SIXTEENTH,12);
    1c92:	2c e0       	ldi	r18, 0x0C	; 12
    1c94:	40 91 00 01 	lds	r20, 0x0100	; 0x800100 <__DATA_REGION_ORIGIN__>
    1c98:	c7 01       	movw	r24, r14
    1c9a:	b6 01       	movw	r22, r12
    1c9c:	0e 94 cf 00 	call	0x19e	; 0x19e <playNote>
	playNote(BPM,SIXTEENTH,12);
    1ca0:	2c e0       	ldi	r18, 0x0C	; 12
    1ca2:	40 91 00 01 	lds	r20, 0x0100	; 0x800100 <__DATA_REGION_ORIGIN__>
    1ca6:	c7 01       	movw	r24, r14
    1ca8:	b6 01       	movw	r22, r12
    1caa:	0e 94 cf 00 	call	0x19e	; 0x19e <playNote>
	playNote(BPM,SIXTEENTH,12);
    1cae:	2c e0       	ldi	r18, 0x0C	; 12
    1cb0:	40 91 00 01 	lds	r20, 0x0100	; 0x800100 <__DATA_REGION_ORIGIN__>
    1cb4:	c7 01       	movw	r24, r14
    1cb6:	b6 01       	movw	r22, r12
    1cb8:	0e 94 cf 00 	call	0x19e	; 0x19e <playNote>
	playNote(BPM,SIXTEENTH,12);
    1cbc:	2c e0       	ldi	r18, 0x0C	; 12
    1cbe:	40 91 00 01 	lds	r20, 0x0100	; 0x800100 <__DATA_REGION_ORIGIN__>
    1cc2:	c7 01       	movw	r24, r14
    1cc4:	b6 01       	movw	r22, r12
    1cc6:	0e 94 cf 00 	call	0x19e	; 0x19e <playNote>
	playNote(BPM,SIXTEENTH,12);
    1cca:	2c e0       	ldi	r18, 0x0C	; 12
    1ccc:	40 91 00 01 	lds	r20, 0x0100	; 0x800100 <__DATA_REGION_ORIGIN__>
    1cd0:	c7 01       	movw	r24, r14
    1cd2:	b6 01       	movw	r22, r12
    1cd4:	0e 94 cf 00 	call	0x19e	; 0x19e <playNote>
	playNote(BPM,SIXTEENTH,12);
    1cd8:	2c e0       	ldi	r18, 0x0C	; 12
    1cda:	40 91 00 01 	lds	r20, 0x0100	; 0x800100 <__DATA_REGION_ORIGIN__>
    1cde:	c7 01       	movw	r24, r14
    1ce0:	b6 01       	movw	r22, r12
    1ce2:	0e 94 cf 00 	call	0x19e	; 0x19e <playNote>
	playNote(BPM,SIXTEENTH,12);
    1ce6:	2c e0       	ldi	r18, 0x0C	; 12
    1ce8:	40 91 00 01 	lds	r20, 0x0100	; 0x800100 <__DATA_REGION_ORIGIN__>
    1cec:	c7 01       	movw	r24, r14
    1cee:	b6 01       	movw	r22, r12
    1cf0:	0e 94 cf 00 	call	0x19e	; 0x19e <playNote>
	playNote(BPM,SIXTEENTH,12);
    1cf4:	2c e0       	ldi	r18, 0x0C	; 12
    1cf6:	40 91 00 01 	lds	r20, 0x0100	; 0x800100 <__DATA_REGION_ORIGIN__>
    1cfa:	c7 01       	movw	r24, r14
    1cfc:	b6 01       	movw	r22, r12
    1cfe:	0e 94 cf 00 	call	0x19e	; 0x19e <playNote>
	playNote(BPM,SIXTEENTH,12);
    1d02:	2c e0       	ldi	r18, 0x0C	; 12
    1d04:	40 91 00 01 	lds	r20, 0x0100	; 0x800100 <__DATA_REGION_ORIGIN__>
    1d08:	c7 01       	movw	r24, r14
    1d0a:	b6 01       	movw	r22, r12
    1d0c:	0e 94 cf 00 	call	0x19e	; 0x19e <playNote>
	playNote(BPM,SIXTEENTH,12);
    1d10:	2c e0       	ldi	r18, 0x0C	; 12
    1d12:	40 91 00 01 	lds	r20, 0x0100	; 0x800100 <__DATA_REGION_ORIGIN__>
    1d16:	c7 01       	movw	r24, r14
    1d18:	b6 01       	movw	r22, r12
    1d1a:	0e 94 cf 00 	call	0x19e	; 0x19e <playNote>
	playNote(BPM,SIXTEENTH,12);
    1d1e:	2c e0       	ldi	r18, 0x0C	; 12
    1d20:	40 91 00 01 	lds	r20, 0x0100	; 0x800100 <__DATA_REGION_ORIGIN__>
    1d24:	c7 01       	movw	r24, r14
    1d26:	b6 01       	movw	r22, r12
    1d28:	0e 94 cf 00 	call	0x19e	; 0x19e <playNote>
	playNote(BPM,SIXTEENTH,12);
    1d2c:	2c e0       	ldi	r18, 0x0C	; 12
    1d2e:	40 91 00 01 	lds	r20, 0x0100	; 0x800100 <__DATA_REGION_ORIGIN__>
    1d32:	c7 01       	movw	r24, r14
    1d34:	b6 01       	movw	r22, r12
    1d36:	0e 94 cf 00 	call	0x19e	; 0x19e <playNote>
	playNote(BPM,SIXTEENTH,12);
    1d3a:	2c e0       	ldi	r18, 0x0C	; 12
    1d3c:	40 91 00 01 	lds	r20, 0x0100	; 0x800100 <__DATA_REGION_ORIGIN__>
    1d40:	c7 01       	movw	r24, r14
    1d42:	b6 01       	movw	r22, r12
    1d44:	0e 94 cf 00 	call	0x19e	; 0x19e <playNote>
	playNote(BPM,SIXTEENTH,12);
    1d48:	2c e0       	ldi	r18, 0x0C	; 12
    1d4a:	40 91 00 01 	lds	r20, 0x0100	; 0x800100 <__DATA_REGION_ORIGIN__>
    1d4e:	c7 01       	movw	r24, r14
    1d50:	b6 01       	movw	r22, r12
    1d52:	0e 94 cf 00 	call	0x19e	; 0x19e <playNote>
	playNote(BPM,SIXTEENTH,12);
    1d56:	2c e0       	ldi	r18, 0x0C	; 12
    1d58:	40 91 00 01 	lds	r20, 0x0100	; 0x800100 <__DATA_REGION_ORIGIN__>
    1d5c:	c7 01       	movw	r24, r14
    1d5e:	b6 01       	movw	r22, r12
    1d60:	0e 94 cf 00 	call	0x19e	; 0x19e <playNote>
	playNote(BPM,SIXTEENTH,12);
    1d64:	2c e0       	ldi	r18, 0x0C	; 12
    1d66:	40 91 00 01 	lds	r20, 0x0100	; 0x800100 <__DATA_REGION_ORIGIN__>
    1d6a:	c7 01       	movw	r24, r14
    1d6c:	b6 01       	movw	r22, r12
    1d6e:	0e 94 cf 00 	call	0x19e	; 0x19e <playNote>
	playNote(BPM,SIXTEENTH,12);
    1d72:	2c e0       	ldi	r18, 0x0C	; 12
    1d74:	40 91 00 01 	lds	r20, 0x0100	; 0x800100 <__DATA_REGION_ORIGIN__>
    1d78:	c7 01       	movw	r24, r14
    1d7a:	b6 01       	movw	r22, r12
    1d7c:	0e 94 cf 00 	call	0x19e	; 0x19e <playNote>
	playNote(BPM,SIXTEENTH,12);
    1d80:	2c e0       	ldi	r18, 0x0C	; 12
    1d82:	40 91 00 01 	lds	r20, 0x0100	; 0x800100 <__DATA_REGION_ORIGIN__>
    1d86:	c7 01       	movw	r24, r14
    1d88:	b6 01       	movw	r22, r12
    1d8a:	0e 94 cf 00 	call	0x19e	; 0x19e <playNote>
	
	playNote(BPM,QUARTER,12);
    1d8e:	2c e0       	ldi	r18, 0x0C	; 12
    1d90:	40 91 02 01 	lds	r20, 0x0102	; 0x800102 <QUARTER>
    1d94:	c7 01       	movw	r24, r14
    1d96:	b6 01       	movw	r22, r12
    1d98:	0e 94 cf 00 	call	0x19e	; 0x19e <playNote>
	playNote(BPM,QUARTER,12);
    1d9c:	2c e0       	ldi	r18, 0x0C	; 12
    1d9e:	40 91 02 01 	lds	r20, 0x0102	; 0x800102 <QUARTER>
    1da2:	c7 01       	movw	r24, r14
    1da4:	b6 01       	movw	r22, r12
    1da6:	0e 94 cf 00 	call	0x19e	; 0x19e <playNote>
	playNote(BPM,QUARTER,12);
    1daa:	2c e0       	ldi	r18, 0x0C	; 12
    1dac:	40 91 02 01 	lds	r20, 0x0102	; 0x800102 <QUARTER>
    1db0:	c7 01       	movw	r24, r14
    1db2:	b6 01       	movw	r22, r12
    1db4:	0e 94 cf 00 	call	0x19e	; 0x19e <playNote>
	playNote(BPM,QUARTER,12);
    1db8:	2c e0       	ldi	r18, 0x0C	; 12
    1dba:	40 91 02 01 	lds	r20, 0x0102	; 0x800102 <QUARTER>
    1dbe:	c7 01       	movw	r24, r14
    1dc0:	b6 01       	movw	r22, r12
    1dc2:	0e 94 cf 00 	call	0x19e	; 0x19e <playNote>
	playNote(BPM,HALF+QUARTER,12);
    1dc6:	40 91 03 01 	lds	r20, 0x0103	; 0x800103 <HALF>
    1dca:	80 91 02 01 	lds	r24, 0x0102	; 0x800102 <QUARTER>
    1dce:	48 0f       	add	r20, r24
    1dd0:	2c e0       	ldi	r18, 0x0C	; 12
    1dd2:	c7 01       	movw	r24, r14
    1dd4:	b6 01       	movw	r22, r12
    1dd6:	0e 94 cf 00 	call	0x19e	; 0x19e <playNote>
	playNote(BPM,HALF+QUARTER,13);
    1dda:	40 91 03 01 	lds	r20, 0x0103	; 0x800103 <HALF>
    1dde:	80 91 02 01 	lds	r24, 0x0102	; 0x800102 <QUARTER>
    1de2:	48 0f       	add	r20, r24
    1de4:	2d e0       	ldi	r18, 0x0D	; 13
    1de6:	c7 01       	movw	r24, r14
    1de8:	b6 01       	movw	r22, r12
    1dea:	0e 94 cf 00 	call	0x19e	; 0x19e <playNote>
	playNote(BPM,HALF+QUARTER,12);
    1dee:	40 91 03 01 	lds	r20, 0x0103	; 0x800103 <HALF>
    1df2:	80 91 02 01 	lds	r24, 0x0102	; 0x800102 <QUARTER>
    1df6:	48 0f       	add	r20, r24
    1df8:	2c e0       	ldi	r18, 0x0C	; 12
    1dfa:	c7 01       	movw	r24, r14
    1dfc:	b6 01       	movw	r22, r12
    1dfe:	0e 94 cf 00 	call	0x19e	; 0x19e <playNote>
	playNote(BPM,HALF+QUARTER,11);
    1e02:	40 91 03 01 	lds	r20, 0x0103	; 0x800103 <HALF>
    1e06:	80 91 02 01 	lds	r24, 0x0102	; 0x800102 <QUARTER>
    1e0a:	48 0f       	add	r20, r24
    1e0c:	2b e0       	ldi	r18, 0x0B	; 11
    1e0e:	c7 01       	movw	r24, r14
    1e10:	b6 01       	movw	r22, r12
    1e12:	0e 94 cf 00 	call	0x19e	; 0x19e <playNote>
	playNote(BPM,HALF+ HALF+HALF+QUARTER,12);
    1e16:	40 91 03 01 	lds	r20, 0x0103	; 0x800103 <HALF>
    1e1a:	84 2f       	mov	r24, r20
    1e1c:	88 0f       	add	r24, r24
    1e1e:	48 0f       	add	r20, r24
    1e20:	80 91 02 01 	lds	r24, 0x0102	; 0x800102 <QUARTER>
    1e24:	48 0f       	add	r20, r24
    1e26:	2c e0       	ldi	r18, 0x0C	; 12
    1e28:	c7 01       	movw	r24, r14
    1e2a:	b6 01       	movw	r22, r12
    1e2c:	0e 94 cf 00 	call	0x19e	; 0x19e <playNote>
	playNote(BPM,HALF+HALF+HALF+QUARTER,17);
    1e30:	40 91 03 01 	lds	r20, 0x0103	; 0x800103 <HALF>
    1e34:	84 2f       	mov	r24, r20
    1e36:	88 0f       	add	r24, r24
    1e38:	48 0f       	add	r20, r24
    1e3a:	80 91 02 01 	lds	r24, 0x0102	; 0x800102 <QUARTER>
    1e3e:	48 0f       	add	r20, r24
    1e40:	21 e1       	ldi	r18, 0x11	; 17
    1e42:	c7 01       	movw	r24, r14
    1e44:	b6 01       	movw	r22, r12
    1e46:	0e 94 cf 00 	call	0x19e	; 0x19e <playNote>
	playNote(BPM,HALF+HALF+HALF+QUARTER,20);
    1e4a:	40 91 03 01 	lds	r20, 0x0103	; 0x800103 <HALF>
    1e4e:	84 2f       	mov	r24, r20
    1e50:	88 0f       	add	r24, r24
    1e52:	48 0f       	add	r20, r24
    1e54:	80 91 02 01 	lds	r24, 0x0102	; 0x800102 <QUARTER>
    1e58:	48 0f       	add	r20, r24
    1e5a:	24 e1       	ldi	r18, 0x14	; 20
    1e5c:	c7 01       	movw	r24, r14
    1e5e:	b6 01       	movw	r22, r12
    1e60:	0e 94 cf 00 	call	0x19e	; 0x19e <playNote>
	playNote(BPM,HALF+QUARTER,22);
    1e64:	40 91 03 01 	lds	r20, 0x0103	; 0x800103 <HALF>
    1e68:	80 91 02 01 	lds	r24, 0x0102	; 0x800102 <QUARTER>
    1e6c:	48 0f       	add	r20, r24
    1e6e:	26 e1       	ldi	r18, 0x16	; 22
    1e70:	c7 01       	movw	r24, r14
    1e72:	b6 01       	movw	r22, r12
    1e74:	0e 94 cf 00 	call	0x19e	; 0x19e <playNote>
	playNote(BPM,HALF+QUARTER,22);
    1e78:	40 91 03 01 	lds	r20, 0x0103	; 0x800103 <HALF>
    1e7c:	80 91 02 01 	lds	r24, 0x0102	; 0x800102 <QUARTER>
    1e80:	48 0f       	add	r20, r24
    1e82:	26 e1       	ldi	r18, 0x16	; 22
    1e84:	c7 01       	movw	r24, r14
    1e86:	b6 01       	movw	r22, r12
    1e88:	0e 94 cf 00 	call	0x19e	; 0x19e <playNote>
	playNote(BPM,HALF+QUARTER,22);
    1e8c:	40 91 03 01 	lds	r20, 0x0103	; 0x800103 <HALF>
    1e90:	80 91 02 01 	lds	r24, 0x0102	; 0x800102 <QUARTER>
    1e94:	48 0f       	add	r20, r24
    1e96:	26 e1       	ldi	r18, 0x16	; 22
    1e98:	c7 01       	movw	r24, r14
    1e9a:	b6 01       	movw	r22, r12
    1e9c:	0e 94 cf 00 	call	0x19e	; 0x19e <playNote>
	playNote(BPM,HALF+QUARTER,22);
    1ea0:	40 91 03 01 	lds	r20, 0x0103	; 0x800103 <HALF>
    1ea4:	80 91 02 01 	lds	r24, 0x0102	; 0x800102 <QUARTER>
    1ea8:	48 0f       	add	r20, r24
    1eaa:	26 e1       	ldi	r18, 0x16	; 22
    1eac:	c7 01       	movw	r24, r14
    1eae:	b6 01       	movw	r22, r12
    1eb0:	0e 94 cf 00 	call	0x19e	; 0x19e <playNote>
	playNote(BPM,HALF+QUARTER,22);
    1eb4:	40 91 03 01 	lds	r20, 0x0103	; 0x800103 <HALF>
    1eb8:	80 91 02 01 	lds	r24, 0x0102	; 0x800102 <QUARTER>
    1ebc:	48 0f       	add	r20, r24
    1ebe:	26 e1       	ldi	r18, 0x16	; 22
    1ec0:	c7 01       	movw	r24, r14
    1ec2:	b6 01       	movw	r22, r12
    1ec4:	0e 94 cf 00 	call	0x19e	; 0x19e <playNote>
	playNote(BPM,HALF+QUARTER,20);
    1ec8:	40 91 03 01 	lds	r20, 0x0103	; 0x800103 <HALF>
    1ecc:	80 91 02 01 	lds	r24, 0x0102	; 0x800102 <QUARTER>
    1ed0:	48 0f       	add	r20, r24
    1ed2:	24 e1       	ldi	r18, 0x14	; 20
    1ed4:	c7 01       	movw	r24, r14
    1ed6:	b6 01       	movw	r22, r12
    1ed8:	0e 94 cf 00 	call	0x19e	; 0x19e <playNote>
	playNote(BPM,HALF+QUARTER,19);
    1edc:	40 91 03 01 	lds	r20, 0x0103	; 0x800103 <HALF>
    1ee0:	80 91 02 01 	lds	r24, 0x0102	; 0x800102 <QUARTER>
    1ee4:	48 0f       	add	r20, r24
    1ee6:	23 e1       	ldi	r18, 0x13	; 19
    1ee8:	c7 01       	movw	r24, r14
    1eea:	b6 01       	movw	r22, r12
    1eec:	0e 94 cf 00 	call	0x19e	; 0x19e <playNote>
	playNote(BPM,HALF+QUARTER,22);
    1ef0:	40 91 03 01 	lds	r20, 0x0103	; 0x800103 <HALF>
    1ef4:	80 91 02 01 	lds	r24, 0x0102	; 0x800102 <QUARTER>
    1ef8:	48 0f       	add	r20, r24
    1efa:	26 e1       	ldi	r18, 0x16	; 22
    1efc:	c7 01       	movw	r24, r14
    1efe:	b6 01       	movw	r22, r12
    1f00:	0e 94 cf 00 	call	0x19e	; 0x19e <playNote>
	playNote(BPM,HALF+QUARTER,20);
    1f04:	40 91 03 01 	lds	r20, 0x0103	; 0x800103 <HALF>
    1f08:	80 91 02 01 	lds	r24, 0x0102	; 0x800102 <QUARTER>
    1f0c:	48 0f       	add	r20, r24
    1f0e:	24 e1       	ldi	r18, 0x14	; 20
    1f10:	c7 01       	movw	r24, r14
    1f12:	b6 01       	movw	r22, r12
    1f14:	0e 94 cf 00 	call	0x19e	; 0x19e <playNote>
	playNote(BPM,HALF+QUARTER,20);
    1f18:	40 91 03 01 	lds	r20, 0x0103	; 0x800103 <HALF>
    1f1c:	80 91 02 01 	lds	r24, 0x0102	; 0x800102 <QUARTER>
    1f20:	48 0f       	add	r20, r24
    1f22:	24 e1       	ldi	r18, 0x14	; 20
    1f24:	c7 01       	movw	r24, r14
    1f26:	b6 01       	movw	r22, r12
    1f28:	0e 94 cf 00 	call	0x19e	; 0x19e <playNote>
	playNote(BPM,HALF+QUARTER,20);
    1f2c:	40 91 03 01 	lds	r20, 0x0103	; 0x800103 <HALF>
    1f30:	80 91 02 01 	lds	r24, 0x0102	; 0x800102 <QUARTER>
    1f34:	48 0f       	add	r20, r24
    1f36:	24 e1       	ldi	r18, 0x14	; 20
    1f38:	c7 01       	movw	r24, r14
    1f3a:	b6 01       	movw	r22, r12
    1f3c:	0e 94 cf 00 	call	0x19e	; 0x19e <playNote>
	playNote(BPM,HALF+QUARTER,20);
    1f40:	40 91 03 01 	lds	r20, 0x0103	; 0x800103 <HALF>
    1f44:	80 91 02 01 	lds	r24, 0x0102	; 0x800102 <QUARTER>
    1f48:	48 0f       	add	r20, r24
    1f4a:	24 e1       	ldi	r18, 0x14	; 20
    1f4c:	c7 01       	movw	r24, r14
    1f4e:	b6 01       	movw	r22, r12
    1f50:	0e 94 cf 00 	call	0x19e	; 0x19e <playNote>
	playNote(BPM,HALF+QUARTER,20);
    1f54:	40 91 03 01 	lds	r20, 0x0103	; 0x800103 <HALF>
    1f58:	80 91 02 01 	lds	r24, 0x0102	; 0x800102 <QUARTER>
    1f5c:	48 0f       	add	r20, r24
    1f5e:	24 e1       	ldi	r18, 0x14	; 20
    1f60:	c7 01       	movw	r24, r14
    1f62:	b6 01       	movw	r22, r12
    1f64:	0e 94 cf 00 	call	0x19e	; 0x19e <playNote>
	playNote(BPM,HALF+QUARTER,19);
    1f68:	40 91 03 01 	lds	r20, 0x0103	; 0x800103 <HALF>
    1f6c:	80 91 02 01 	lds	r24, 0x0102	; 0x800102 <QUARTER>
    1f70:	48 0f       	add	r20, r24
    1f72:	23 e1       	ldi	r18, 0x13	; 19
    1f74:	c7 01       	movw	r24, r14
    1f76:	b6 01       	movw	r22, r12
    1f78:	0e 94 cf 00 	call	0x19e	; 0x19e <playNote>
	playNote(BPM,HALF+QUARTER,17);
    1f7c:	40 91 03 01 	lds	r20, 0x0103	; 0x800103 <HALF>
    1f80:	80 91 02 01 	lds	r24, 0x0102	; 0x800102 <QUARTER>
    1f84:	48 0f       	add	r20, r24
    1f86:	21 e1       	ldi	r18, 0x11	; 17
    1f88:	c7 01       	movw	r24, r14
    1f8a:	b6 01       	movw	r22, r12
    1f8c:	0e 94 cf 00 	call	0x19e	; 0x19e <playNote>
	playNote(BPM,HALF+QUARTER,20);
    1f90:	40 91 03 01 	lds	r20, 0x0103	; 0x800103 <HALF>
    1f94:	80 91 02 01 	lds	r24, 0x0102	; 0x800102 <QUARTER>
    1f98:	48 0f       	add	r20, r24
    1f9a:	24 e1       	ldi	r18, 0x14	; 20
    1f9c:	c7 01       	movw	r24, r14
    1f9e:	b6 01       	movw	r22, r12
    1fa0:	0e 94 cf 00 	call	0x19e	; 0x19e <playNote>
	playNote(BPM,HALF+QUARTER,19);
    1fa4:	40 91 03 01 	lds	r20, 0x0103	; 0x800103 <HALF>
    1fa8:	80 91 02 01 	lds	r24, 0x0102	; 0x800102 <QUARTER>
    1fac:	48 0f       	add	r20, r24
    1fae:	23 e1       	ldi	r18, 0x13	; 19
    1fb0:	c7 01       	movw	r24, r14
    1fb2:	b6 01       	movw	r22, r12
    1fb4:	0e 94 cf 00 	call	0x19e	; 0x19e <playNote>
	playNote(BPM,HALF+QUARTER,19);
    1fb8:	40 91 03 01 	lds	r20, 0x0103	; 0x800103 <HALF>
    1fbc:	80 91 02 01 	lds	r24, 0x0102	; 0x800102 <QUARTER>
    1fc0:	48 0f       	add	r20, r24
    1fc2:	23 e1       	ldi	r18, 0x13	; 19
    1fc4:	c7 01       	movw	r24, r14
    1fc6:	b6 01       	movw	r22, r12
    1fc8:	0e 94 cf 00 	call	0x19e	; 0x19e <playNote>
	playNote(BPM,HALF+QUARTER,19);
    1fcc:	40 91 03 01 	lds	r20, 0x0103	; 0x800103 <HALF>
    1fd0:	80 91 02 01 	lds	r24, 0x0102	; 0x800102 <QUARTER>
    1fd4:	48 0f       	add	r20, r24
    1fd6:	23 e1       	ldi	r18, 0x13	; 19
    1fd8:	c7 01       	movw	r24, r14
    1fda:	b6 01       	movw	r22, r12
    1fdc:	0e 94 cf 00 	call	0x19e	; 0x19e <playNote>
	playNote(BPM,HALF+QUARTER,19);
    1fe0:	40 91 03 01 	lds	r20, 0x0103	; 0x800103 <HALF>
    1fe4:	80 91 02 01 	lds	r24, 0x0102	; 0x800102 <QUARTER>
    1fe8:	48 0f       	add	r20, r24
    1fea:	23 e1       	ldi	r18, 0x13	; 19
    1fec:	c7 01       	movw	r24, r14
    1fee:	b6 01       	movw	r22, r12
    1ff0:	0e 94 cf 00 	call	0x19e	; 0x19e <playNote>
	playNote(BPM,HALF+HALF+QUARTER,14);
    1ff4:	40 91 03 01 	lds	r20, 0x0103	; 0x800103 <HALF>
    1ff8:	44 0f       	add	r20, r20
    1ffa:	80 91 02 01 	lds	r24, 0x0102	; 0x800102 <QUARTER>
    1ffe:	48 0f       	add	r20, r24
    2000:	2e e0       	ldi	r18, 0x0E	; 14
    2002:	c7 01       	movw	r24, r14
    2004:	b6 01       	movw	r22, r12
    2006:	0e 94 cf 00 	call	0x19e	; 0x19e <playNote>
	playNote(BPM,HALF+HALF+QUARTER,19);
    200a:	40 91 03 01 	lds	r20, 0x0103	; 0x800103 <HALF>
    200e:	44 0f       	add	r20, r20
    2010:	80 91 02 01 	lds	r24, 0x0102	; 0x800102 <QUARTER>
    2014:	48 0f       	add	r20, r24
    2016:	23 e1       	ldi	r18, 0x13	; 19
    2018:	c7 01       	movw	r24, r14
    201a:	b6 01       	movw	r22, r12
    201c:	0e 94 cf 00 	call	0x19e	; 0x19e <playNote>
	playNote(BPM,HALF+HALF+HALF+QUARTER,16);
    2020:	40 91 03 01 	lds	r20, 0x0103	; 0x800103 <HALF>
    2024:	84 2f       	mov	r24, r20
    2026:	88 0f       	add	r24, r24
    2028:	48 0f       	add	r20, r24
    202a:	80 91 02 01 	lds	r24, 0x0102	; 0x800102 <QUARTER>
    202e:	48 0f       	add	r20, r24
    2030:	20 e1       	ldi	r18, 0x10	; 16
    2032:	c7 01       	movw	r24, r14
    2034:	b6 01       	movw	r22, r12
    2036:	0e 94 cf 00 	call	0x19e	; 0x19e <playNote>
	playNote(BPM,HALF+HALF+HALF+HALF+HALF+QUARTER,12);
    203a:	80 91 03 01 	lds	r24, 0x0103	; 0x800103 <HALF>
    203e:	48 2f       	mov	r20, r24
    2040:	44 0f       	add	r20, r20
    2042:	48 0f       	add	r20, r24
    2044:	48 0f       	add	r20, r24
    2046:	84 0f       	add	r24, r20
    2048:	40 91 02 01 	lds	r20, 0x0102	; 0x800102 <QUARTER>
    204c:	48 0f       	add	r20, r24
    204e:	2c e0       	ldi	r18, 0x0C	; 12
    2050:	c7 01       	movw	r24, r14
    2052:	b6 01       	movw	r22, r12
    2054:	0e 94 cf 00 	call	0x19e	; 0x19e <playNote>
	
	playNote(BPM,HALF,12);
    2058:	2c e0       	ldi	r18, 0x0C	; 12
    205a:	40 91 03 01 	lds	r20, 0x0103	; 0x800103 <HALF>
    205e:	c7 01       	movw	r24, r14
    2060:	b6 01       	movw	r22, r12
    2062:	0e 94 cf 00 	call	0x19e	; 0x19e <playNote>
	playNote(BPM,HALF,12);
    2066:	2c e0       	ldi	r18, 0x0C	; 12
    2068:	40 91 03 01 	lds	r20, 0x0103	; 0x800103 <HALF>
    206c:	c7 01       	movw	r24, r14
    206e:	b6 01       	movw	r22, r12
    2070:	0e 94 cf 00 	call	0x19e	; 0x19e <playNote>
	playNote(BPM,HALF,12);
    2074:	2c e0       	ldi	r18, 0x0C	; 12
    2076:	40 91 03 01 	lds	r20, 0x0103	; 0x800103 <HALF>
    207a:	c7 01       	movw	r24, r14
    207c:	b6 01       	movw	r22, r12
    207e:	0e 94 cf 00 	call	0x19e	; 0x19e <playNote>
	playNote(BPM,HALF,12);
    2082:	2c e0       	ldi	r18, 0x0C	; 12
    2084:	40 91 03 01 	lds	r20, 0x0103	; 0x800103 <HALF>
    2088:	c7 01       	movw	r24, r14
    208a:	b6 01       	movw	r22, r12
    208c:	0e 94 cf 00 	call	0x19e	; 0x19e <playNote>
	playNote(BPM,HALF,12);
    2090:	2c e0       	ldi	r18, 0x0C	; 12
    2092:	40 91 03 01 	lds	r20, 0x0103	; 0x800103 <HALF>
    2096:	c7 01       	movw	r24, r14
    2098:	b6 01       	movw	r22, r12
    209a:	0e 94 cf 00 	call	0x19e	; 0x19e <playNote>
	playNote(BPM,HALF,12);
    209e:	2c e0       	ldi	r18, 0x0C	; 12
    20a0:	40 91 03 01 	lds	r20, 0x0103	; 0x800103 <HALF>
    20a4:	c7 01       	movw	r24, r14
    20a6:	b6 01       	movw	r22, r12
    20a8:	0e 94 cf 00 	call	0x19e	; 0x19e <playNote>
	playNote(BPM,HALF,12);
    20ac:	2c e0       	ldi	r18, 0x0C	; 12
    20ae:	40 91 03 01 	lds	r20, 0x0103	; 0x800103 <HALF>
    20b2:	c7 01       	movw	r24, r14
    20b4:	b6 01       	movw	r22, r12
    20b6:	0e 94 cf 00 	call	0x19e	; 0x19e <playNote>
	playNote(BPM,HALF,12);
    20ba:	2c e0       	ldi	r18, 0x0C	; 12
    20bc:	40 91 03 01 	lds	r20, 0x0103	; 0x800103 <HALF>
    20c0:	c7 01       	movw	r24, r14
    20c2:	b6 01       	movw	r22, r12
    20c4:	0e 94 cf 00 	call	0x19e	; 0x19e <playNote>
	playNote(BPM,HALF,12);
    20c8:	2c e0       	ldi	r18, 0x0C	; 12
    20ca:	40 91 03 01 	lds	r20, 0x0103	; 0x800103 <HALF>
    20ce:	c7 01       	movw	r24, r14
    20d0:	b6 01       	movw	r22, r12
    20d2:	0e 94 cf 00 	call	0x19e	; 0x19e <playNote>
	playNote(BPM,HALF,12);
    20d6:	2c e0       	ldi	r18, 0x0C	; 12
    20d8:	40 91 03 01 	lds	r20, 0x0103	; 0x800103 <HALF>
    20dc:	c7 01       	movw	r24, r14
    20de:	b6 01       	movw	r22, r12
    20e0:	0e 94 cf 00 	call	0x19e	; 0x19e <playNote>
	playNote(BPM,HALF,12);
    20e4:	2c e0       	ldi	r18, 0x0C	; 12
    20e6:	40 91 03 01 	lds	r20, 0x0103	; 0x800103 <HALF>
    20ea:	c7 01       	movw	r24, r14
    20ec:	b6 01       	movw	r22, r12
    20ee:	0e 94 cf 00 	call	0x19e	; 0x19e <playNote>
	playNote(BPM,HALF,12);
    20f2:	2c e0       	ldi	r18, 0x0C	; 12
    20f4:	40 91 03 01 	lds	r20, 0x0103	; 0x800103 <HALF>
    20f8:	c7 01       	movw	r24, r14
    20fa:	b6 01       	movw	r22, r12
    20fc:	0e 94 cf 00 	call	0x19e	; 0x19e <playNote>
	playNote(BPM,HALF,12);
    2100:	2c e0       	ldi	r18, 0x0C	; 12
    2102:	40 91 03 01 	lds	r20, 0x0103	; 0x800103 <HALF>
    2106:	c7 01       	movw	r24, r14
    2108:	b6 01       	movw	r22, r12
    210a:	0e 94 cf 00 	call	0x19e	; 0x19e <playNote>
	playNote(BPM,HALF,12);
    210e:	2c e0       	ldi	r18, 0x0C	; 12
    2110:	40 91 03 01 	lds	r20, 0x0103	; 0x800103 <HALF>
    2114:	c7 01       	movw	r24, r14
    2116:	b6 01       	movw	r22, r12
    2118:	0e 94 cf 00 	call	0x19e	; 0x19e <playNote>
	playNote(BPM,HALF,12);
    211c:	2c e0       	ldi	r18, 0x0C	; 12
    211e:	40 91 03 01 	lds	r20, 0x0103	; 0x800103 <HALF>
    2122:	c7 01       	movw	r24, r14
    2124:	b6 01       	movw	r22, r12
    2126:	0e 94 cf 00 	call	0x19e	; 0x19e <playNote>
	playNote(BPM,HALF,12);
    212a:	2c e0       	ldi	r18, 0x0C	; 12
    212c:	40 91 03 01 	lds	r20, 0x0103	; 0x800103 <HALF>
    2130:	c7 01       	movw	r24, r14
    2132:	b6 01       	movw	r22, r12
    2134:	0e 94 cf 00 	call	0x19e	; 0x19e <playNote>
	playNote(BPM,HALF,12);
    2138:	2c e0       	ldi	r18, 0x0C	; 12
    213a:	40 91 03 01 	lds	r20, 0x0103	; 0x800103 <HALF>
    213e:	c7 01       	movw	r24, r14
    2140:	b6 01       	movw	r22, r12
    2142:	0e 94 cf 00 	call	0x19e	; 0x19e <playNote>
	
	playNote(BPM,HALF,13);
    2146:	2d e0       	ldi	r18, 0x0D	; 13
    2148:	40 91 03 01 	lds	r20, 0x0103	; 0x800103 <HALF>
    214c:	c7 01       	movw	r24, r14
    214e:	b6 01       	movw	r22, r12
    2150:	0e 94 cf 00 	call	0x19e	; 0x19e <playNote>
	playNote(BPM,HALF,12);
    2154:	2c e0       	ldi	r18, 0x0C	; 12
    2156:	40 91 03 01 	lds	r20, 0x0103	; 0x800103 <HALF>
    215a:	c7 01       	movw	r24, r14
    215c:	b6 01       	movw	r22, r12
    215e:	0e 94 cf 00 	call	0x19e	; 0x19e <playNote>
	playNote(BPM,HALF,11);
    2162:	2b e0       	ldi	r18, 0x0B	; 11
    2164:	40 91 03 01 	lds	r20, 0x0103	; 0x800103 <HALF>
    2168:	c7 01       	movw	r24, r14
    216a:	b6 01       	movw	r22, r12
    216c:	0e 94 cf 00 	call	0x19e	; 0x19e <playNote>
	playNote(BPM,HALF+HALF+QUARTER,12);
    2170:	40 91 03 01 	lds	r20, 0x0103	; 0x800103 <HALF>
    2174:	44 0f       	add	r20, r20
    2176:	80 91 02 01 	lds	r24, 0x0102	; 0x800102 <QUARTER>
    217a:	48 0f       	add	r20, r24
    217c:	2c e0       	ldi	r18, 0x0C	; 12
    217e:	c7 01       	movw	r24, r14
    2180:	b6 01       	movw	r22, r12
    2182:	0e 94 cf 00 	call	0x19e	; 0x19e <playNote>
	playNote(BPM,HALF,17);
    2186:	21 e1       	ldi	r18, 0x11	; 17
    2188:	40 91 03 01 	lds	r20, 0x0103	; 0x800103 <HALF>
    218c:	c7 01       	movw	r24, r14
    218e:	b6 01       	movw	r22, r12
    2190:	0e 94 cf 00 	call	0x19e	; 0x19e <playNote>
	playNote(BPM,HALF,20);
    2194:	24 e1       	ldi	r18, 0x14	; 20
    2196:	40 91 03 01 	lds	r20, 0x0103	; 0x800103 <HALF>
    219a:	c7 01       	movw	r24, r14
    219c:	b6 01       	movw	r22, r12
    219e:	0e 94 cf 00 	call	0x19e	; 0x19e <playNote>
	playNote(BPM,HALF,24);
    21a2:	28 e1       	ldi	r18, 0x18	; 24
    21a4:	40 91 03 01 	lds	r20, 0x0103	; 0x800103 <HALF>
    21a8:	c7 01       	movw	r24, r14
    21aa:	b6 01       	movw	r22, r12
    21ac:	0e 94 cf 00 	call	0x19e	; 0x19e <playNote>
	playNote(BPM,HALF,29);
    21b0:	2d e1       	ldi	r18, 0x1D	; 29
    21b2:	40 91 03 01 	lds	r20, 0x0103	; 0x800103 <HALF>
    21b6:	c7 01       	movw	r24, r14
    21b8:	b6 01       	movw	r22, r12
    21ba:	0e 94 cf 00 	call	0x19e	; 0x19e <playNote>
	playNote(BPM,HALF+HALF+HALF,29);
    21be:	40 91 03 01 	lds	r20, 0x0103	; 0x800103 <HALF>
    21c2:	84 2f       	mov	r24, r20
    21c4:	88 0f       	add	r24, r24
    21c6:	48 0f       	add	r20, r24
    21c8:	2d e1       	ldi	r18, 0x1D	; 29
    21ca:	c7 01       	movw	r24, r14
    21cc:	b6 01       	movw	r22, r12
    21ce:	0e 94 cf 00 	call	0x19e	; 0x19e <playNote>
	
	playNote(BPM,HALF,22);
    21d2:	26 e1       	ldi	r18, 0x16	; 22
    21d4:	40 91 03 01 	lds	r20, 0x0103	; 0x800103 <HALF>
    21d8:	c7 01       	movw	r24, r14
    21da:	b6 01       	movw	r22, r12
    21dc:	0e 94 cf 00 	call	0x19e	; 0x19e <playNote>
	playNote(BPM,HALF,20);
    21e0:	24 e1       	ldi	r18, 0x14	; 20
    21e2:	40 91 03 01 	lds	r20, 0x0103	; 0x800103 <HALF>
    21e6:	c7 01       	movw	r24, r14
    21e8:	b6 01       	movw	r22, r12
    21ea:	0e 94 cf 00 	call	0x19e	; 0x19e <playNote>
	playNote(BPM,HALF,19);
    21ee:	23 e1       	ldi	r18, 0x13	; 19
    21f0:	40 91 03 01 	lds	r20, 0x0103	; 0x800103 <HALF>
    21f4:	c7 01       	movw	r24, r14
    21f6:	b6 01       	movw	r22, r12
    21f8:	0e 94 cf 00 	call	0x19e	; 0x19e <playNote>
	playNote(BPM,HALF,22);
    21fc:	26 e1       	ldi	r18, 0x16	; 22
    21fe:	40 91 03 01 	lds	r20, 0x0103	; 0x800103 <HALF>
    2202:	c7 01       	movw	r24, r14
    2204:	b6 01       	movw	r22, r12
    2206:	0e 94 cf 00 	call	0x19e	; 0x19e <playNote>
	playNote(BPM,HALF,20);
    220a:	24 e1       	ldi	r18, 0x14	; 20
    220c:	40 91 03 01 	lds	r20, 0x0103	; 0x800103 <HALF>
    2210:	c7 01       	movw	r24, r14
    2212:	b6 01       	movw	r22, r12
    2214:	0e 94 cf 00 	call	0x19e	; 0x19e <playNote>
	playNote(BPM,HALF,19);
    2218:	23 e1       	ldi	r18, 0x13	; 19
    221a:	40 91 03 01 	lds	r20, 0x0103	; 0x800103 <HALF>
    221e:	c7 01       	movw	r24, r14
    2220:	b6 01       	movw	r22, r12
    2222:	0e 94 cf 00 	call	0x19e	; 0x19e <playNote>
	playNote(BPM,HALF,17);
    2226:	21 e1       	ldi	r18, 0x11	; 17
    2228:	40 91 03 01 	lds	r20, 0x0103	; 0x800103 <HALF>
    222c:	c7 01       	movw	r24, r14
    222e:	b6 01       	movw	r22, r12
    2230:	0e 94 cf 00 	call	0x19e	; 0x19e <playNote>
	playNote(BPM,HALF,20);
    2234:	24 e1       	ldi	r18, 0x14	; 20
    2236:	40 91 03 01 	lds	r20, 0x0103	; 0x800103 <HALF>
    223a:	c7 01       	movw	r24, r14
    223c:	b6 01       	movw	r22, r12
    223e:	0e 94 cf 00 	call	0x19e	; 0x19e <playNote>
	playNote(BPM,HALF,19);
    2242:	23 e1       	ldi	r18, 0x13	; 19
    2244:	40 91 03 01 	lds	r20, 0x0103	; 0x800103 <HALF>
    2248:	c7 01       	movw	r24, r14
    224a:	b6 01       	movw	r22, r12
    224c:	0e 94 cf 00 	call	0x19e	; 0x19e <playNote>
	playNote(BPM,HALF,17);
    2250:	21 e1       	ldi	r18, 0x11	; 17
    2252:	40 91 03 01 	lds	r20, 0x0103	; 0x800103 <HALF>
    2256:	c7 01       	movw	r24, r14
    2258:	b6 01       	movw	r22, r12
    225a:	0e 94 cf 00 	call	0x19e	; 0x19e <playNote>
	playNote(BPM,HALF,16);
    225e:	20 e1       	ldi	r18, 0x10	; 16
    2260:	40 91 03 01 	lds	r20, 0x0103	; 0x800103 <HALF>
    2264:	c7 01       	movw	r24, r14
    2266:	b6 01       	movw	r22, r12
    2268:	0e 94 cf 00 	call	0x19e	; 0x19e <playNote>
	playNote(BPM,HALF,19);
    226c:	23 e1       	ldi	r18, 0x13	; 19
    226e:	40 91 03 01 	lds	r20, 0x0103	; 0x800103 <HALF>
    2272:	c7 01       	movw	r24, r14
    2274:	b6 01       	movw	r22, r12
    2276:	0e 94 cf 00 	call	0x19e	; 0x19e <playNote>
	playNote(BPM,HALF,17);
    227a:	21 e1       	ldi	r18, 0x11	; 17
    227c:	40 91 03 01 	lds	r20, 0x0103	; 0x800103 <HALF>
    2280:	c7 01       	movw	r24, r14
    2282:	b6 01       	movw	r22, r12
    2284:	0e 94 cf 00 	call	0x19e	; 0x19e <playNote>
	playNote(BPM,HALF,12);
    2288:	2c e0       	ldi	r18, 0x0C	; 12
    228a:	40 91 03 01 	lds	r20, 0x0103	; 0x800103 <HALF>
    228e:	c7 01       	movw	r24, r14
    2290:	b6 01       	movw	r22, r12
    2292:	0e 94 cf 00 	call	0x19e	; 0x19e <playNote>
	playNote(BPM,HALF,8);
    2296:	28 e0       	ldi	r18, 0x08	; 8
    2298:	40 91 03 01 	lds	r20, 0x0103	; 0x800103 <HALF>
    229c:	c7 01       	movw	r24, r14
    229e:	b6 01       	movw	r22, r12
    22a0:	0e 94 cf 00 	call	0x19e	; 0x19e <playNote>
	playNote(BPM,HALF,5);
    22a4:	25 e0       	ldi	r18, 0x05	; 5
    22a6:	40 91 03 01 	lds	r20, 0x0103	; 0x800103 <HALF>
    22aa:	c7 01       	movw	r24, r14
    22ac:	b6 01       	movw	r22, r12
    22ae:	0e 94 cf 00 	call	0x19e	; 0x19e <playNote>
	
	playNote(BPM,QUARTER+EIGHT,25);
    22b2:	40 91 02 01 	lds	r20, 0x0102	; 0x800102 <QUARTER>
    22b6:	80 91 01 01 	lds	r24, 0x0101	; 0x800101 <EIGHT>
    22ba:	48 0f       	add	r20, r24
    22bc:	29 e1       	ldi	r18, 0x19	; 25
    22be:	c7 01       	movw	r24, r14
    22c0:	b6 01       	movw	r22, r12
    22c2:	0e 94 cf 00 	call	0x19e	; 0x19e <playNote>
	playNote(BPM,QUARTER+EIGHT,24);
    22c6:	40 91 02 01 	lds	r20, 0x0102	; 0x800102 <QUARTER>
    22ca:	80 91 01 01 	lds	r24, 0x0101	; 0x800101 <EIGHT>
    22ce:	48 0f       	add	r20, r24
    22d0:	28 e1       	ldi	r18, 0x18	; 24
    22d2:	c7 01       	movw	r24, r14
    22d4:	b6 01       	movw	r22, r12
    22d6:	0e 94 cf 00 	call	0x19e	; 0x19e <playNote>
	playNote(BPM,QUARTER+EIGHT,22);
    22da:	40 91 02 01 	lds	r20, 0x0102	; 0x800102 <QUARTER>
    22de:	80 91 01 01 	lds	r24, 0x0101	; 0x800101 <EIGHT>
    22e2:	48 0f       	add	r20, r24
    22e4:	26 e1       	ldi	r18, 0x16	; 22
    22e6:	c7 01       	movw	r24, r14
    22e8:	b6 01       	movw	r22, r12
    22ea:	0e 94 cf 00 	call	0x19e	; 0x19e <playNote>
	playNote(BPM,QUARTER+EIGHT,20);
    22ee:	40 91 02 01 	lds	r20, 0x0102	; 0x800102 <QUARTER>
    22f2:	80 91 01 01 	lds	r24, 0x0101	; 0x800101 <EIGHT>
    22f6:	48 0f       	add	r20, r24
    22f8:	24 e1       	ldi	r18, 0x14	; 20
    22fa:	c7 01       	movw	r24, r14
    22fc:	b6 01       	movw	r22, r12
    22fe:	0e 94 cf 00 	call	0x19e	; 0x19e <playNote>
	playNote(BPM,QUARTER+EIGHT,19);
    2302:	40 91 02 01 	lds	r20, 0x0102	; 0x800102 <QUARTER>
    2306:	80 91 01 01 	lds	r24, 0x0101	; 0x800101 <EIGHT>
    230a:	48 0f       	add	r20, r24
    230c:	23 e1       	ldi	r18, 0x13	; 19
    230e:	c7 01       	movw	r24, r14
    2310:	b6 01       	movw	r22, r12
    2312:	0e 94 cf 00 	call	0x19e	; 0x19e <playNote>
	playNote(BPM,QUARTER+EIGHT,17);
    2316:	40 91 02 01 	lds	r20, 0x0102	; 0x800102 <QUARTER>
    231a:	80 91 01 01 	lds	r24, 0x0101	; 0x800101 <EIGHT>
    231e:	48 0f       	add	r20, r24
    2320:	21 e1       	ldi	r18, 0x11	; 17
    2322:	c7 01       	movw	r24, r14
    2324:	b6 01       	movw	r22, r12
    2326:	0e 94 cf 00 	call	0x19e	; 0x19e <playNote>
	playNote(BPM,QUARTER+EIGHT,16);
    232a:	40 91 02 01 	lds	r20, 0x0102	; 0x800102 <QUARTER>
    232e:	80 91 01 01 	lds	r24, 0x0101	; 0x800101 <EIGHT>
    2332:	48 0f       	add	r20, r24
    2334:	20 e1       	ldi	r18, 0x10	; 16
    2336:	c7 01       	movw	r24, r14
    2338:	b6 01       	movw	r22, r12
    233a:	0e 94 cf 00 	call	0x19e	; 0x19e <playNote>
	playNote(BPM,QUARTER+EIGHT,19);
    233e:	40 91 02 01 	lds	r20, 0x0102	; 0x800102 <QUARTER>
    2342:	80 91 01 01 	lds	r24, 0x0101	; 0x800101 <EIGHT>
    2346:	48 0f       	add	r20, r24
    2348:	23 e1       	ldi	r18, 0x13	; 19
    234a:	c7 01       	movw	r24, r14
    234c:	b6 01       	movw	r22, r12
    234e:	0e 94 cf 00 	call	0x19e	; 0x19e <playNote>
	playNote(BPM,HALF+HALF+QUARTER+EIGHT,17);
    2352:	40 91 03 01 	lds	r20, 0x0103	; 0x800103 <HALF>
    2356:	44 0f       	add	r20, r20
    2358:	80 91 02 01 	lds	r24, 0x0102	; 0x800102 <QUARTER>
    235c:	48 0f       	add	r20, r24
    235e:	80 91 01 01 	lds	r24, 0x0101	; 0x800101 <EIGHT>
    2362:	48 0f       	add	r20, r24
    2364:	21 e1       	ldi	r18, 0x11	; 17
    2366:	c7 01       	movw	r24, r14
    2368:	b6 01       	movw	r22, r12
    236a:	0e 94 cf 00 	call	0x19e	; 0x19e <playNote>
	playNote(BPM,HALF+HALF+HALF+QUARTER,5);
    236e:	40 91 03 01 	lds	r20, 0x0103	; 0x800103 <HALF>
    2372:	84 2f       	mov	r24, r20
    2374:	88 0f       	add	r24, r24
    2376:	48 0f       	add	r20, r24
    2378:	80 91 02 01 	lds	r24, 0x0102	; 0x800102 <QUARTER>
    237c:	48 0f       	add	r20, r24
    237e:	25 e0       	ldi	r18, 0x05	; 5
    2380:	c7 01       	movw	r24, r14
    2382:	b6 01       	movw	r22, r12
    2384:	0e 94 cf 00 	call	0x19e	; 0x19e <playNote>
	
	playNote(BPM,HALF+QUARTER,22);
    2388:	40 91 03 01 	lds	r20, 0x0103	; 0x800103 <HALF>
    238c:	80 91 02 01 	lds	r24, 0x0102	; 0x800102 <QUARTER>
    2390:	48 0f       	add	r20, r24
    2392:	26 e1       	ldi	r18, 0x16	; 22
    2394:	c7 01       	movw	r24, r14
    2396:	b6 01       	movw	r22, r12
    2398:	0e 94 cf 00 	call	0x19e	; 0x19e <playNote>
	playNote(BPM,QUARTER+EIGHT,21);
    239c:	40 91 02 01 	lds	r20, 0x0102	; 0x800102 <QUARTER>
    23a0:	80 91 01 01 	lds	r24, 0x0101	; 0x800101 <EIGHT>
    23a4:	48 0f       	add	r20, r24
    23a6:	25 e1       	ldi	r18, 0x15	; 21
    23a8:	c7 01       	movw	r24, r14
    23aa:	b6 01       	movw	r22, r12
    23ac:	0e 94 cf 00 	call	0x19e	; 0x19e <playNote>
	playNote(BPM,QUARTER+EIGHT,22);
    23b0:	40 91 02 01 	lds	r20, 0x0102	; 0x800102 <QUARTER>
    23b4:	80 91 01 01 	lds	r24, 0x0101	; 0x800101 <EIGHT>
    23b8:	48 0f       	add	r20, r24
    23ba:	26 e1       	ldi	r18, 0x16	; 22
    23bc:	c7 01       	movw	r24, r14
    23be:	b6 01       	movw	r22, r12
    23c0:	0e 94 cf 00 	call	0x19e	; 0x19e <playNote>
	playNote(BPM,QUARTER+EIGHT,24);
    23c4:	40 91 02 01 	lds	r20, 0x0102	; 0x800102 <QUARTER>
    23c8:	80 91 01 01 	lds	r24, 0x0101	; 0x800101 <EIGHT>
    23cc:	48 0f       	add	r20, r24
    23ce:	28 e1       	ldi	r18, 0x18	; 24
    23d0:	c7 01       	movw	r24, r14
    23d2:	b6 01       	movw	r22, r12
    23d4:	0e 94 cf 00 	call	0x19e	; 0x19e <playNote>
	playNote(BPM,QUARTER+EIGHT,25);
    23d8:	40 91 02 01 	lds	r20, 0x0102	; 0x800102 <QUARTER>
    23dc:	80 91 01 01 	lds	r24, 0x0101	; 0x800101 <EIGHT>
    23e0:	48 0f       	add	r20, r24
    23e2:	29 e1       	ldi	r18, 0x19	; 25
    23e4:	c7 01       	movw	r24, r14
    23e6:	b6 01       	movw	r22, r12
    23e8:	0e 94 cf 00 	call	0x19e	; 0x19e <playNote>
	playNote(BPM,QUARTER+EIGHT,24);
    23ec:	40 91 02 01 	lds	r20, 0x0102	; 0x800102 <QUARTER>
    23f0:	80 91 01 01 	lds	r24, 0x0101	; 0x800101 <EIGHT>
    23f4:	48 0f       	add	r20, r24
    23f6:	28 e1       	ldi	r18, 0x18	; 24
    23f8:	c7 01       	movw	r24, r14
    23fa:	b6 01       	movw	r22, r12
    23fc:	0e 94 cf 00 	call	0x19e	; 0x19e <playNote>
	playNote(BPM,QUARTER+EIGHT,22);
    2400:	40 91 02 01 	lds	r20, 0x0102	; 0x800102 <QUARTER>
    2404:	80 91 01 01 	lds	r24, 0x0101	; 0x800101 <EIGHT>
    2408:	48 0f       	add	r20, r24
    240a:	26 e1       	ldi	r18, 0x16	; 22
    240c:	c7 01       	movw	r24, r14
    240e:	b6 01       	movw	r22, r12
    2410:	0e 94 cf 00 	call	0x19e	; 0x19e <playNote>
	playNote(BPM,QUARTER+EIGHT,25);
    2414:	40 91 02 01 	lds	r20, 0x0102	; 0x800102 <QUARTER>
    2418:	80 91 01 01 	lds	r24, 0x0101	; 0x800101 <EIGHT>
    241c:	48 0f       	add	r20, r24
    241e:	29 e1       	ldi	r18, 0x19	; 25
    2420:	c7 01       	movw	r24, r14
    2422:	b6 01       	movw	r22, r12
    2424:	0e 94 cf 00 	call	0x19e	; 0x19e <playNote>
	playNote(BPM,QUARTER+EIGHT+EIGHT,24);
    2428:	80 91 01 01 	lds	r24, 0x0101	; 0x800101 <EIGHT>
    242c:	40 91 02 01 	lds	r20, 0x0102	; 0x800102 <QUARTER>
    2430:	48 0f       	add	r20, r24
    2432:	48 0f       	add	r20, r24
    2434:	28 e1       	ldi	r18, 0x18	; 24
    2436:	c7 01       	movw	r24, r14
    2438:	b6 01       	movw	r22, r12
    243a:	0e 94 cf 00 	call	0x19e	; 0x19e <playNote>
	playNote(BPM,QUARTER+EIGHT,22);
    243e:	40 91 02 01 	lds	r20, 0x0102	; 0x800102 <QUARTER>
    2442:	80 91 01 01 	lds	r24, 0x0101	; 0x800101 <EIGHT>
    2446:	48 0f       	add	r20, r24
    2448:	26 e1       	ldi	r18, 0x16	; 22
    244a:	c7 01       	movw	r24, r14
    244c:	b6 01       	movw	r22, r12
    244e:	0e 94 cf 00 	call	0x19e	; 0x19e <playNote>
	playNote(BPM,QUARTER+EIGHT,20);
    2452:	40 91 02 01 	lds	r20, 0x0102	; 0x800102 <QUARTER>
    2456:	80 91 01 01 	lds	r24, 0x0101	; 0x800101 <EIGHT>
    245a:	48 0f       	add	r20, r24
    245c:	24 e1       	ldi	r18, 0x14	; 20
    245e:	c7 01       	movw	r24, r14
    2460:	b6 01       	movw	r22, r12
    2462:	0e 94 cf 00 	call	0x19e	; 0x19e <playNote>
	playNote(BPM,QUARTER+EIGHT,22);
    2466:	40 91 02 01 	lds	r20, 0x0102	; 0x800102 <QUARTER>
    246a:	80 91 01 01 	lds	r24, 0x0101	; 0x800101 <EIGHT>
    246e:	48 0f       	add	r20, r24
    2470:	26 e1       	ldi	r18, 0x16	; 22
    2472:	c7 01       	movw	r24, r14
    2474:	b6 01       	movw	r22, r12
    2476:	0e 94 cf 00 	call	0x19e	; 0x19e <playNote>
	playNote(BPM,HALF+HALF+QUARTER+EIGHT,24);
    247a:	40 91 03 01 	lds	r20, 0x0103	; 0x800103 <HALF>
    247e:	44 0f       	add	r20, r20
    2480:	80 91 02 01 	lds	r24, 0x0102	; 0x800102 <QUARTER>
    2484:	48 0f       	add	r20, r24
    2486:	80 91 01 01 	lds	r24, 0x0101	; 0x800101 <EIGHT>
    248a:	48 0f       	add	r20, r24
    248c:	28 e1       	ldi	r18, 0x18	; 24
    248e:	c7 01       	movw	r24, r14
    2490:	b6 01       	movw	r22, r12
    2492:	0e 94 cf 00 	call	0x19e	; 0x19e <playNote>
	
	playNote(BPM,QUARTER+EIGHT,20);
    2496:	40 91 02 01 	lds	r20, 0x0102	; 0x800102 <QUARTER>
    249a:	80 91 01 01 	lds	r24, 0x0101	; 0x800101 <EIGHT>
    249e:	48 0f       	add	r20, r24
    24a0:	24 e1       	ldi	r18, 0x14	; 20
    24a2:	c7 01       	movw	r24, r14
    24a4:	b6 01       	movw	r22, r12
    24a6:	0e 94 cf 00 	call	0x19e	; 0x19e <playNote>
	playNote(BPM,QUARTER+EIGHT,19);
    24aa:	40 91 02 01 	lds	r20, 0x0102	; 0x800102 <QUARTER>
    24ae:	80 91 01 01 	lds	r24, 0x0101	; 0x800101 <EIGHT>
    24b2:	48 0f       	add	r20, r24
    24b4:	23 e1       	ldi	r18, 0x13	; 19
    24b6:	c7 01       	movw	r24, r14
    24b8:	b6 01       	movw	r22, r12
    24ba:	0e 94 cf 00 	call	0x19e	; 0x19e <playNote>
	playNote(BPM,QUARTER+EIGHT,18);
    24be:	40 91 02 01 	lds	r20, 0x0102	; 0x800102 <QUARTER>
    24c2:	80 91 01 01 	lds	r24, 0x0101	; 0x800101 <EIGHT>
    24c6:	48 0f       	add	r20, r24
    24c8:	22 e1       	ldi	r18, 0x12	; 18
    24ca:	c7 01       	movw	r24, r14
    24cc:	b6 01       	movw	r22, r12
    24ce:	0e 94 cf 00 	call	0x19e	; 0x19e <playNote>
	playNote(BPM,QUARTER+EIGHT,19);
    24d2:	40 91 02 01 	lds	r20, 0x0102	; 0x800102 <QUARTER>
    24d6:	80 91 01 01 	lds	r24, 0x0101	; 0x800101 <EIGHT>
    24da:	48 0f       	add	r20, r24
    24dc:	23 e1       	ldi	r18, 0x13	; 19
    24de:	c7 01       	movw	r24, r14
    24e0:	b6 01       	movw	r22, r12
    24e2:	0e 94 cf 00 	call	0x19e	; 0x19e <playNote>
	playNote(BPM,QUARTER+EIGHT,20);
    24e6:	40 91 02 01 	lds	r20, 0x0102	; 0x800102 <QUARTER>
    24ea:	80 91 01 01 	lds	r24, 0x0101	; 0x800101 <EIGHT>
    24ee:	48 0f       	add	r20, r24
    24f0:	24 e1       	ldi	r18, 0x14	; 20
    24f2:	c7 01       	movw	r24, r14
    24f4:	b6 01       	movw	r22, r12
    24f6:	0e 94 cf 00 	call	0x19e	; 0x19e <playNote>
	playNote(BPM,QUARTER+EIGHT,22);
    24fa:	40 91 02 01 	lds	r20, 0x0102	; 0x800102 <QUARTER>
    24fe:	80 91 01 01 	lds	r24, 0x0101	; 0x800101 <EIGHT>
    2502:	48 0f       	add	r20, r24
    2504:	26 e1       	ldi	r18, 0x16	; 22
    2506:	c7 01       	movw	r24, r14
    2508:	b6 01       	movw	r22, r12
    250a:	0e 94 cf 00 	call	0x19e	; 0x19e <playNote>
	playNote(BPM,QUARTER+EIGHT,20);
    250e:	40 91 02 01 	lds	r20, 0x0102	; 0x800102 <QUARTER>
    2512:	80 91 01 01 	lds	r24, 0x0101	; 0x800101 <EIGHT>
    2516:	48 0f       	add	r20, r24
    2518:	24 e1       	ldi	r18, 0x14	; 20
    251a:	c7 01       	movw	r24, r14
    251c:	b6 01       	movw	r22, r12
    251e:	0e 94 cf 00 	call	0x19e	; 0x19e <playNote>
	
	playNote(BPM,QUARTER+EIGHT,19);
    2522:	40 91 02 01 	lds	r20, 0x0102	; 0x800102 <QUARTER>
    2526:	80 91 01 01 	lds	r24, 0x0101	; 0x800101 <EIGHT>
    252a:	48 0f       	add	r20, r24
    252c:	23 e1       	ldi	r18, 0x13	; 19
    252e:	c7 01       	movw	r24, r14
    2530:	b6 01       	movw	r22, r12
    2532:	0e 94 cf 00 	call	0x19e	; 0x19e <playNote>
	playNote(BPM,QUARTER+EIGHT,22);
    2536:	40 91 02 01 	lds	r20, 0x0102	; 0x800102 <QUARTER>
    253a:	80 91 01 01 	lds	r24, 0x0101	; 0x800101 <EIGHT>
    253e:	48 0f       	add	r20, r24
    2540:	26 e1       	ldi	r18, 0x16	; 22
    2542:	c7 01       	movw	r24, r14
    2544:	b6 01       	movw	r22, r12
    2546:	0e 94 cf 00 	call	0x19e	; 0x19e <playNote>
	playNote(BPM,QUARTER+EIGHT,20);
    254a:	40 91 02 01 	lds	r20, 0x0102	; 0x800102 <QUARTER>
    254e:	80 91 01 01 	lds	r24, 0x0101	; 0x800101 <EIGHT>
    2552:	48 0f       	add	r20, r24
    2554:	24 e1       	ldi	r18, 0x14	; 20
    2556:	c7 01       	movw	r24, r14
    2558:	b6 01       	movw	r22, r12
    255a:	0e 94 cf 00 	call	0x19e	; 0x19e <playNote>
	playNote(BPM,QUARTER+EIGHT,17);
    255e:	40 91 02 01 	lds	r20, 0x0102	; 0x800102 <QUARTER>
    2562:	80 91 01 01 	lds	r24, 0x0101	; 0x800101 <EIGHT>
    2566:	48 0f       	add	r20, r24
    2568:	21 e1       	ldi	r18, 0x11	; 17
    256a:	c7 01       	movw	r24, r14
    256c:	b6 01       	movw	r22, r12
    256e:	0e 94 cf 00 	call	0x19e	; 0x19e <playNote>
	playNote(BPM,QUARTER+EIGHT,20);
    2572:	40 91 02 01 	lds	r20, 0x0102	; 0x800102 <QUARTER>
    2576:	80 91 01 01 	lds	r24, 0x0101	; 0x800101 <EIGHT>
    257a:	48 0f       	add	r20, r24
    257c:	24 e1       	ldi	r18, 0x14	; 20
    257e:	c7 01       	movw	r24, r14
    2580:	b6 01       	movw	r22, r12
    2582:	0e 94 cf 00 	call	0x19e	; 0x19e <playNote>
	playNote(BPM,QUARTER+EIGHT,24);
    2586:	40 91 02 01 	lds	r20, 0x0102	; 0x800102 <QUARTER>
    258a:	80 91 01 01 	lds	r24, 0x0101	; 0x800101 <EIGHT>
    258e:	48 0f       	add	r20, r24
    2590:	28 e1       	ldi	r18, 0x18	; 24
    2592:	c7 01       	movw	r24, r14
    2594:	b6 01       	movw	r22, r12
    2596:	0e 94 cf 00 	call	0x19e	; 0x19e <playNote>
	playNote(BPM,QUARTER+EIGHT,29);
    259a:	40 91 02 01 	lds	r20, 0x0102	; 0x800102 <QUARTER>
    259e:	80 91 01 01 	lds	r24, 0x0101	; 0x800101 <EIGHT>
    25a2:	48 0f       	add	r20, r24
    25a4:	2d e1       	ldi	r18, 0x1D	; 29
    25a6:	c7 01       	movw	r24, r14
    25a8:	b6 01       	movw	r22, r12
    25aa:	0e 94 cf 00 	call	0x19e	; 0x19e <playNote>
	playNote(BPM,QUARTER+EIGHT,24);
    25ae:	40 91 02 01 	lds	r20, 0x0102	; 0x800102 <QUARTER>
    25b2:	80 91 01 01 	lds	r24, 0x0101	; 0x800101 <EIGHT>
    25b6:	48 0f       	add	r20, r24
    25b8:	28 e1       	ldi	r18, 0x18	; 24
    25ba:	c7 01       	movw	r24, r14
    25bc:	b6 01       	movw	r22, r12
    25be:	0e 94 cf 00 	call	0x19e	; 0x19e <playNote>
	playNote(BPM,QUARTER+EIGHT,20);
    25c2:	40 91 02 01 	lds	r20, 0x0102	; 0x800102 <QUARTER>
    25c6:	80 91 01 01 	lds	r24, 0x0101	; 0x800101 <EIGHT>
    25ca:	48 0f       	add	r20, r24
    25cc:	24 e1       	ldi	r18, 0x14	; 20
    25ce:	c7 01       	movw	r24, r14
    25d0:	b6 01       	movw	r22, r12
    25d2:	0e 94 cf 00 	call	0x19e	; 0x19e <playNote>
	playNote(BPM,QUARTER+EIGHT,17);
    25d6:	40 91 02 01 	lds	r20, 0x0102	; 0x800102 <QUARTER>
    25da:	80 91 01 01 	lds	r24, 0x0101	; 0x800101 <EIGHT>
    25de:	48 0f       	add	r20, r24
    25e0:	21 e1       	ldi	r18, 0x11	; 17
    25e2:	c7 01       	movw	r24, r14
    25e4:	b6 01       	movw	r22, r12
    25e6:	0e 94 cf 00 	call	0x19e	; 0x19e <playNote>
	
	playNote(BPM,HALF+QUARTER,22);
    25ea:	40 91 03 01 	lds	r20, 0x0103	; 0x800103 <HALF>
    25ee:	80 91 02 01 	lds	r24, 0x0102	; 0x800102 <QUARTER>
    25f2:	48 0f       	add	r20, r24
    25f4:	26 e1       	ldi	r18, 0x16	; 22
    25f6:	c7 01       	movw	r24, r14
    25f8:	b6 01       	movw	r22, r12
    25fa:	0e 94 cf 00 	call	0x19e	; 0x19e <playNote>
	playNote(BPM,QUARTER+EIGHT,21);
    25fe:	40 91 02 01 	lds	r20, 0x0102	; 0x800102 <QUARTER>
    2602:	80 91 01 01 	lds	r24, 0x0101	; 0x800101 <EIGHT>
    2606:	48 0f       	add	r20, r24
    2608:	25 e1       	ldi	r18, 0x15	; 21
    260a:	c7 01       	movw	r24, r14
    260c:	b6 01       	movw	r22, r12
    260e:	0e 94 cf 00 	call	0x19e	; 0x19e <playNote>
	playNote(BPM,QUARTER+EIGHT,22);
    2612:	40 91 02 01 	lds	r20, 0x0102	; 0x800102 <QUARTER>
    2616:	80 91 01 01 	lds	r24, 0x0101	; 0x800101 <EIGHT>
    261a:	48 0f       	add	r20, r24
    261c:	26 e1       	ldi	r18, 0x16	; 22
    261e:	c7 01       	movw	r24, r14
    2620:	b6 01       	movw	r22, r12
    2622:	0e 94 cf 00 	call	0x19e	; 0x19e <playNote>
	playNote(BPM,QUARTER+EIGHT,24);
    2626:	40 91 02 01 	lds	r20, 0x0102	; 0x800102 <QUARTER>
    262a:	80 91 01 01 	lds	r24, 0x0101	; 0x800101 <EIGHT>
    262e:	48 0f       	add	r20, r24
    2630:	28 e1       	ldi	r18, 0x18	; 24
    2632:	c7 01       	movw	r24, r14
    2634:	b6 01       	movw	r22, r12
    2636:	0e 94 cf 00 	call	0x19e	; 0x19e <playNote>
	playNote(BPM,QUARTER+EIGHT,25);
    263a:	40 91 02 01 	lds	r20, 0x0102	; 0x800102 <QUARTER>
    263e:	80 91 01 01 	lds	r24, 0x0101	; 0x800101 <EIGHT>
    2642:	48 0f       	add	r20, r24
    2644:	29 e1       	ldi	r18, 0x19	; 25
    2646:	c7 01       	movw	r24, r14
    2648:	b6 01       	movw	r22, r12
    264a:	0e 94 cf 00 	call	0x19e	; 0x19e <playNote>
	playNote(BPM,QUARTER+EIGHT,24);
    264e:	40 91 02 01 	lds	r20, 0x0102	; 0x800102 <QUARTER>
    2652:	80 91 01 01 	lds	r24, 0x0101	; 0x800101 <EIGHT>
    2656:	48 0f       	add	r20, r24
    2658:	28 e1       	ldi	r18, 0x18	; 24
    265a:	c7 01       	movw	r24, r14
    265c:	b6 01       	movw	r22, r12
    265e:	0e 94 cf 00 	call	0x19e	; 0x19e <playNote>
	playNote(BPM,QUARTER+EIGHT,22);
    2662:	40 91 02 01 	lds	r20, 0x0102	; 0x800102 <QUARTER>
    2666:	80 91 01 01 	lds	r24, 0x0101	; 0x800101 <EIGHT>
    266a:	48 0f       	add	r20, r24
    266c:	26 e1       	ldi	r18, 0x16	; 22
    266e:	c7 01       	movw	r24, r14
    2670:	b6 01       	movw	r22, r12
    2672:	0e 94 cf 00 	call	0x19e	; 0x19e <playNote>
	playNote(BPM,QUARTER+EIGHT+EIGHT,25);
    2676:	80 91 01 01 	lds	r24, 0x0101	; 0x800101 <EIGHT>
    267a:	40 91 02 01 	lds	r20, 0x0102	; 0x800102 <QUARTER>
    267e:	48 0f       	add	r20, r24
    2680:	48 0f       	add	r20, r24
    2682:	29 e1       	ldi	r18, 0x19	; 25
    2684:	c7 01       	movw	r24, r14
    2686:	b6 01       	movw	r22, r12
    2688:	0e 94 cf 00 	call	0x19e	; 0x19e <playNote>
	playNote(BPM,QUARTER+EIGHT,24);
    268c:	40 91 02 01 	lds	r20, 0x0102	; 0x800102 <QUARTER>
    2690:	80 91 01 01 	lds	r24, 0x0101	; 0x800101 <EIGHT>
    2694:	48 0f       	add	r20, r24
    2696:	28 e1       	ldi	r18, 0x18	; 24
    2698:	c7 01       	movw	r24, r14
    269a:	b6 01       	movw	r22, r12
    269c:	0e 94 cf 00 	call	0x19e	; 0x19e <playNote>
	playNote(BPM,QUARTER+EIGHT,22);
    26a0:	40 91 02 01 	lds	r20, 0x0102	; 0x800102 <QUARTER>
    26a4:	80 91 01 01 	lds	r24, 0x0101	; 0x800101 <EIGHT>
    26a8:	48 0f       	add	r20, r24
    26aa:	26 e1       	ldi	r18, 0x16	; 22
    26ac:	c7 01       	movw	r24, r14
    26ae:	b6 01       	movw	r22, r12
    26b0:	0e 94 cf 00 	call	0x19e	; 0x19e <playNote>
	playNote(BPM,QUARTER+EIGHT,20);
    26b4:	40 91 02 01 	lds	r20, 0x0102	; 0x800102 <QUARTER>
    26b8:	80 91 01 01 	lds	r24, 0x0101	; 0x800101 <EIGHT>
    26bc:	48 0f       	add	r20, r24
    26be:	24 e1       	ldi	r18, 0x14	; 20
    26c0:	c7 01       	movw	r24, r14
    26c2:	b6 01       	movw	r22, r12
    26c4:	0e 94 cf 00 	call	0x19e	; 0x19e <playNote>
	playNote(BPM,QUARTER+EIGHT,22);
    26c8:	40 91 02 01 	lds	r20, 0x0102	; 0x800102 <QUARTER>
    26cc:	80 91 01 01 	lds	r24, 0x0101	; 0x800101 <EIGHT>
    26d0:	48 0f       	add	r20, r24
    26d2:	26 e1       	ldi	r18, 0x16	; 22
    26d4:	c7 01       	movw	r24, r14
    26d6:	b6 01       	movw	r22, r12
    26d8:	0e 94 cf 00 	call	0x19e	; 0x19e <playNote>
	playNote(BPM,HALF+HALF+QUARTER+EIGHT,24);
    26dc:	40 91 03 01 	lds	r20, 0x0103	; 0x800103 <HALF>
    26e0:	44 0f       	add	r20, r20
    26e2:	80 91 02 01 	lds	r24, 0x0102	; 0x800102 <QUARTER>
    26e6:	48 0f       	add	r20, r24
    26e8:	80 91 01 01 	lds	r24, 0x0101	; 0x800101 <EIGHT>
    26ec:	48 0f       	add	r20, r24
    26ee:	28 e1       	ldi	r18, 0x18	; 24
    26f0:	c7 01       	movw	r24, r14
    26f2:	b6 01       	movw	r22, r12
    26f4:	0e 94 cf 00 	call	0x19e	; 0x19e <playNote>
	playNote(BPM,HALF+HALF+QUARTER+EIGHT,29);
    26f8:	40 91 03 01 	lds	r20, 0x0103	; 0x800103 <HALF>
    26fc:	44 0f       	add	r20, r20
    26fe:	80 91 02 01 	lds	r24, 0x0102	; 0x800102 <QUARTER>
    2702:	48 0f       	add	r20, r24
    2704:	80 91 01 01 	lds	r24, 0x0101	; 0x800101 <EIGHT>
    2708:	48 0f       	add	r20, r24
    270a:	2d e1       	ldi	r18, 0x1D	; 29
    270c:	c7 01       	movw	r24, r14
    270e:	b6 01       	movw	r22, r12
    2710:	0e 94 cf 00 	call	0x19e	; 0x19e <playNote>
	
	playNote(BPM,QUARTER+EIGHT,22);
    2714:	40 91 02 01 	lds	r20, 0x0102	; 0x800102 <QUARTER>
    2718:	80 91 01 01 	lds	r24, 0x0101	; 0x800101 <EIGHT>
    271c:	48 0f       	add	r20, r24
    271e:	26 e1       	ldi	r18, 0x16	; 22
    2720:	c7 01       	movw	r24, r14
    2722:	b6 01       	movw	r22, r12
    2724:	0e 94 cf 00 	call	0x19e	; 0x19e <playNote>
	playNote(BPM,QUARTER+EIGHT,25);
    2728:	40 91 02 01 	lds	r20, 0x0102	; 0x800102 <QUARTER>
    272c:	80 91 01 01 	lds	r24, 0x0101	; 0x800101 <EIGHT>
    2730:	48 0f       	add	r20, r24
    2732:	29 e1       	ldi	r18, 0x19	; 25
    2734:	c7 01       	movw	r24, r14
    2736:	b6 01       	movw	r22, r12
    2738:	0e 94 cf 00 	call	0x19e	; 0x19e <playNote>
	playNote(BPM,QUARTER+EIGHT,24);
    273c:	40 91 02 01 	lds	r20, 0x0102	; 0x800102 <QUARTER>
    2740:	80 91 01 01 	lds	r24, 0x0101	; 0x800101 <EIGHT>
    2744:	48 0f       	add	r20, r24
    2746:	28 e1       	ldi	r18, 0x18	; 24
    2748:	c7 01       	movw	r24, r14
    274a:	b6 01       	movw	r22, r12
    274c:	0e 94 cf 00 	call	0x19e	; 0x19e <playNote>
	playNote(BPM,QUARTER+EIGHT,20);
    2750:	40 91 02 01 	lds	r20, 0x0102	; 0x800102 <QUARTER>
    2754:	80 91 01 01 	lds	r24, 0x0101	; 0x800101 <EIGHT>
    2758:	48 0f       	add	r20, r24
    275a:	24 e1       	ldi	r18, 0x14	; 20
    275c:	c7 01       	movw	r24, r14
    275e:	b6 01       	movw	r22, r12
    2760:	0e 94 cf 00 	call	0x19e	; 0x19e <playNote>
	playNote(BPM,QUARTER+EIGHT,22);
    2764:	40 91 02 01 	lds	r20, 0x0102	; 0x800102 <QUARTER>
    2768:	80 91 01 01 	lds	r24, 0x0101	; 0x800101 <EIGHT>
    276c:	48 0f       	add	r20, r24
    276e:	26 e1       	ldi	r18, 0x16	; 22
    2770:	c7 01       	movw	r24, r14
    2772:	b6 01       	movw	r22, r12
    2774:	0e 94 cf 00 	call	0x19e	; 0x19e <playNote>
	playNote(BPM,QUARTER+EIGHT,19);
    2778:	40 91 02 01 	lds	r20, 0x0102	; 0x800102 <QUARTER>
    277c:	80 91 01 01 	lds	r24, 0x0101	; 0x800101 <EIGHT>
    2780:	48 0f       	add	r20, r24
    2782:	23 e1       	ldi	r18, 0x13	; 19
    2784:	c7 01       	movw	r24, r14
    2786:	b6 01       	movw	r22, r12
    2788:	0e 94 cf 00 	call	0x19e	; 0x19e <playNote>
	playNote(BPM,HALF+HALF+QUARTER+EIGHT,17);
    278c:	40 91 03 01 	lds	r20, 0x0103	; 0x800103 <HALF>
    2790:	44 0f       	add	r20, r20
    2792:	80 91 02 01 	lds	r24, 0x0102	; 0x800102 <QUARTER>
    2796:	48 0f       	add	r20, r24
    2798:	80 91 01 01 	lds	r24, 0x0101	; 0x800101 <EIGHT>
    279c:	48 0f       	add	r20, r24
    279e:	21 e1       	ldi	r18, 0x11	; 17
    27a0:	c7 01       	movw	r24, r14
    27a2:	b6 01       	movw	r22, r12
    27a4:	0e 94 cf 00 	call	0x19e	; 0x19e <playNote>
	playNote(BPM,QUARTER+EIGHT,12);
    27a8:	40 91 02 01 	lds	r20, 0x0102	; 0x800102 <QUARTER>
    27ac:	80 91 01 01 	lds	r24, 0x0101	; 0x800101 <EIGHT>
    27b0:	48 0f       	add	r20, r24
    27b2:	2c e0       	ldi	r18, 0x0C	; 12
    27b4:	c7 01       	movw	r24, r14
    27b6:	b6 01       	movw	r22, r12
    27b8:	0e 94 cf 00 	call	0x19e	; 0x19e <playNote>
	playNote(BPM,QUARTER+EIGHT,17);
    27bc:	40 91 02 01 	lds	r20, 0x0102	; 0x800102 <QUARTER>
    27c0:	80 91 01 01 	lds	r24, 0x0101	; 0x800101 <EIGHT>
    27c4:	48 0f       	add	r20, r24
    27c6:	21 e1       	ldi	r18, 0x11	; 17
    27c8:	c7 01       	movw	r24, r14
    27ca:	b6 01       	movw	r22, r12
    27cc:	0e 94 cf 00 	call	0x19e	; 0x19e <playNote>
	
	
	
	
	
}
    27d0:	ff 90       	pop	r15
    27d2:	ef 90       	pop	r14
    27d4:	df 90       	pop	r13
    27d6:	cf 90       	pop	r12
    27d8:	08 95       	ret

000027da <main>:

int main(void)
{
     
    
		DDRD = 0xFF;
    27da:	8f ef       	ldi	r24, 0xFF	; 255
    27dc:	8a b9       	out	0x0a, r24	; 10
		DDRC &=~ (1<<0);
    27de:	87 b1       	in	r24, 0x07	; 7
    27e0:	8e 7f       	andi	r24, 0xFE	; 254
    27e2:	87 b9       	out	0x07, r24	; 7
		DDRC &=~ (1<<1);
    27e4:	87 b1       	in	r24, 0x07	; 7
    27e6:	8d 7f       	andi	r24, 0xFD	; 253
    27e8:	87 b9       	out	0x07, r24	; 7
		DDRC &=~ (1<<2); 
    27ea:	87 b1       	in	r24, 0x07	; 7
    27ec:	8b 7f       	andi	r24, 0xFB	; 251
    27ee:	87 b9       	out	0x07, r24	; 7
		DDRC &=~ (1<<3); 
    27f0:	87 b1       	in	r24, 0x07	; 7
    27f2:	87 7f       	andi	r24, 0xF7	; 247
    27f4:	87 b9       	out	0x07, r24	; 7
		
	while(1){	
		if((PINC &(1<<1))!=0){
    27f6:	31 9b       	sbis	0x06, 1	; 6
    27f8:	09 c0       	rjmp	.+18     	; 0x280c <main+0x32>
			PORTC |= (1<<1);
    27fa:	88 b1       	in	r24, 0x08	; 8
    27fc:	82 60       	ori	r24, 0x02	; 2
    27fe:	88 b9       	out	0x08, r24	; 8
			FurElise(100);
    2800:	60 e0       	ldi	r22, 0x00	; 0
    2802:	70 e0       	ldi	r23, 0x00	; 0
    2804:	88 ec       	ldi	r24, 0xC8	; 200
    2806:	92 e4       	ldi	r25, 0x42	; 66
    2808:	0e 94 58 03 	call	0x6b0	; 0x6b0 <FurElise>
		}
		if((PINC &(1<<0))!=0){
    280c:	30 9b       	sbis	0x06, 0	; 6
    280e:	09 c0       	rjmp	.+18     	; 0x2822 <main+0x48>
			PORTC |= (1<<0);
    2810:	88 b1       	in	r24, 0x08	; 8
    2812:	81 60       	ori	r24, 0x01	; 1
    2814:	88 b9       	out	0x08, r24	; 8
			OdeToJoy(150);
    2816:	60 e0       	ldi	r22, 0x00	; 0
    2818:	70 e0       	ldi	r23, 0x00	; 0
    281a:	86 e1       	ldi	r24, 0x16	; 22
    281c:	93 e4       	ldi	r25, 0x43	; 67
    281e:	0e 94 97 01 	call	0x32e	; 0x32e <OdeToJoy>
		}
		if((PINC &(1<<2))!=0){
    2822:	32 9b       	sbis	0x06, 2	; 6
    2824:	09 c0       	rjmp	.+18     	; 0x2838 <main+0x5e>
			PORTC |= (1<<2);
    2826:	88 b1       	in	r24, 0x08	; 8
    2828:	84 60       	ori	r24, 0x04	; 4
    282a:	88 b9       	out	0x08, r24	; 8
			SURPRISE(150);
    282c:	60 e0       	ldi	r22, 0x00	; 0
    282e:	70 e0       	ldi	r23, 0x00	; 0
    2830:	86 e1       	ldi	r24, 0x16	; 22
    2832:	93 e4       	ldi	r25, 0x43	; 67
    2834:	0e 94 e1 05 	call	0xbc2	; 0xbc2 <SURPRISE>
		}
		if((PINC &(1<<3))!=0){
    2838:	33 9b       	sbis	0x06, 3	; 6
    283a:	dd cf       	rjmp	.-70     	; 0x27f6 <main+0x1c>
			PORTC |= (1<<3);
    283c:	88 b1       	in	r24, 0x08	; 8
    283e:	88 60       	ori	r24, 0x08	; 8
    2840:	88 b9       	out	0x08, r24	; 8
			RUSHE(500);
    2842:	60 e0       	ldi	r22, 0x00	; 0
    2844:	70 e0       	ldi	r23, 0x00	; 0
    2846:	8a ef       	ldi	r24, 0xFA	; 250
    2848:	93 e4       	ldi	r25, 0x43	; 67
    284a:	0e 94 f3 0b 	call	0x17e6	; 0x17e6 <RUSHE>
    284e:	d3 cf       	rjmp	.-90     	; 0x27f6 <main+0x1c>

00002850 <__divsf3>:
    2850:	0e 94 3c 14 	call	0x2878	; 0x2878 <__divsf3x>
    2854:	0c 94 1d 15 	jmp	0x2a3a	; 0x2a3a <__fp_round>
    2858:	0e 94 16 15 	call	0x2a2c	; 0x2a2c <__fp_pscB>
    285c:	58 f0       	brcs	.+22     	; 0x2874 <__divsf3+0x24>
    285e:	0e 94 0f 15 	call	0x2a1e	; 0x2a1e <__fp_pscA>
    2862:	40 f0       	brcs	.+16     	; 0x2874 <__divsf3+0x24>
    2864:	29 f4       	brne	.+10     	; 0x2870 <__divsf3+0x20>
    2866:	5f 3f       	cpi	r21, 0xFF	; 255
    2868:	29 f0       	breq	.+10     	; 0x2874 <__divsf3+0x24>
    286a:	0c 94 06 15 	jmp	0x2a0c	; 0x2a0c <__fp_inf>
    286e:	51 11       	cpse	r21, r1
    2870:	0c 94 51 15 	jmp	0x2aa2	; 0x2aa2 <__fp_szero>
    2874:	0c 94 0c 15 	jmp	0x2a18	; 0x2a18 <__fp_nan>

00002878 <__divsf3x>:
    2878:	0e 94 2e 15 	call	0x2a5c	; 0x2a5c <__fp_split3>
    287c:	68 f3       	brcs	.-38     	; 0x2858 <__divsf3+0x8>

0000287e <__divsf3_pse>:
    287e:	99 23       	and	r25, r25
    2880:	b1 f3       	breq	.-20     	; 0x286e <__divsf3+0x1e>
    2882:	55 23       	and	r21, r21
    2884:	91 f3       	breq	.-28     	; 0x286a <__divsf3+0x1a>
    2886:	95 1b       	sub	r25, r21
    2888:	55 0b       	sbc	r21, r21
    288a:	bb 27       	eor	r27, r27
    288c:	aa 27       	eor	r26, r26
    288e:	62 17       	cp	r22, r18
    2890:	73 07       	cpc	r23, r19
    2892:	84 07       	cpc	r24, r20
    2894:	38 f0       	brcs	.+14     	; 0x28a4 <__divsf3_pse+0x26>
    2896:	9f 5f       	subi	r25, 0xFF	; 255
    2898:	5f 4f       	sbci	r21, 0xFF	; 255
    289a:	22 0f       	add	r18, r18
    289c:	33 1f       	adc	r19, r19
    289e:	44 1f       	adc	r20, r20
    28a0:	aa 1f       	adc	r26, r26
    28a2:	a9 f3       	breq	.-22     	; 0x288e <__divsf3_pse+0x10>
    28a4:	35 d0       	rcall	.+106    	; 0x2910 <__divsf3_pse+0x92>
    28a6:	0e 2e       	mov	r0, r30
    28a8:	3a f0       	brmi	.+14     	; 0x28b8 <__divsf3_pse+0x3a>
    28aa:	e0 e8       	ldi	r30, 0x80	; 128
    28ac:	32 d0       	rcall	.+100    	; 0x2912 <__divsf3_pse+0x94>
    28ae:	91 50       	subi	r25, 0x01	; 1
    28b0:	50 40       	sbci	r21, 0x00	; 0
    28b2:	e6 95       	lsr	r30
    28b4:	00 1c       	adc	r0, r0
    28b6:	ca f7       	brpl	.-14     	; 0x28aa <__divsf3_pse+0x2c>
    28b8:	2b d0       	rcall	.+86     	; 0x2910 <__divsf3_pse+0x92>
    28ba:	fe 2f       	mov	r31, r30
    28bc:	29 d0       	rcall	.+82     	; 0x2910 <__divsf3_pse+0x92>
    28be:	66 0f       	add	r22, r22
    28c0:	77 1f       	adc	r23, r23
    28c2:	88 1f       	adc	r24, r24
    28c4:	bb 1f       	adc	r27, r27
    28c6:	26 17       	cp	r18, r22
    28c8:	37 07       	cpc	r19, r23
    28ca:	48 07       	cpc	r20, r24
    28cc:	ab 07       	cpc	r26, r27
    28ce:	b0 e8       	ldi	r27, 0x80	; 128
    28d0:	09 f0       	breq	.+2      	; 0x28d4 <__divsf3_pse+0x56>
    28d2:	bb 0b       	sbc	r27, r27
    28d4:	80 2d       	mov	r24, r0
    28d6:	bf 01       	movw	r22, r30
    28d8:	ff 27       	eor	r31, r31
    28da:	93 58       	subi	r25, 0x83	; 131
    28dc:	5f 4f       	sbci	r21, 0xFF	; 255
    28de:	3a f0       	brmi	.+14     	; 0x28ee <__divsf3_pse+0x70>
    28e0:	9e 3f       	cpi	r25, 0xFE	; 254
    28e2:	51 05       	cpc	r21, r1
    28e4:	78 f0       	brcs	.+30     	; 0x2904 <__divsf3_pse+0x86>
    28e6:	0c 94 06 15 	jmp	0x2a0c	; 0x2a0c <__fp_inf>
    28ea:	0c 94 51 15 	jmp	0x2aa2	; 0x2aa2 <__fp_szero>
    28ee:	5f 3f       	cpi	r21, 0xFF	; 255
    28f0:	e4 f3       	brlt	.-8      	; 0x28ea <__divsf3_pse+0x6c>
    28f2:	98 3e       	cpi	r25, 0xE8	; 232
    28f4:	d4 f3       	brlt	.-12     	; 0x28ea <__divsf3_pse+0x6c>
    28f6:	86 95       	lsr	r24
    28f8:	77 95       	ror	r23
    28fa:	67 95       	ror	r22
    28fc:	b7 95       	ror	r27
    28fe:	f7 95       	ror	r31
    2900:	9f 5f       	subi	r25, 0xFF	; 255
    2902:	c9 f7       	brne	.-14     	; 0x28f6 <__divsf3_pse+0x78>
    2904:	88 0f       	add	r24, r24
    2906:	91 1d       	adc	r25, r1
    2908:	96 95       	lsr	r25
    290a:	87 95       	ror	r24
    290c:	97 f9       	bld	r25, 7
    290e:	08 95       	ret
    2910:	e1 e0       	ldi	r30, 0x01	; 1
    2912:	66 0f       	add	r22, r22
    2914:	77 1f       	adc	r23, r23
    2916:	88 1f       	adc	r24, r24
    2918:	bb 1f       	adc	r27, r27
    291a:	62 17       	cp	r22, r18
    291c:	73 07       	cpc	r23, r19
    291e:	84 07       	cpc	r24, r20
    2920:	ba 07       	cpc	r27, r26
    2922:	20 f0       	brcs	.+8      	; 0x292c <__divsf3_pse+0xae>
    2924:	62 1b       	sub	r22, r18
    2926:	73 0b       	sbc	r23, r19
    2928:	84 0b       	sbc	r24, r20
    292a:	ba 0b       	sbc	r27, r26
    292c:	ee 1f       	adc	r30, r30
    292e:	88 f7       	brcc	.-30     	; 0x2912 <__divsf3_pse+0x94>
    2930:	e0 95       	com	r30
    2932:	08 95       	ret

00002934 <__fixunssfsi>:
    2934:	0e 94 36 15 	call	0x2a6c	; 0x2a6c <__fp_splitA>
    2938:	88 f0       	brcs	.+34     	; 0x295c <__fixunssfsi+0x28>
    293a:	9f 57       	subi	r25, 0x7F	; 127
    293c:	98 f0       	brcs	.+38     	; 0x2964 <__fixunssfsi+0x30>
    293e:	b9 2f       	mov	r27, r25
    2940:	99 27       	eor	r25, r25
    2942:	b7 51       	subi	r27, 0x17	; 23
    2944:	b0 f0       	brcs	.+44     	; 0x2972 <__fixunssfsi+0x3e>
    2946:	e1 f0       	breq	.+56     	; 0x2980 <__fixunssfsi+0x4c>
    2948:	66 0f       	add	r22, r22
    294a:	77 1f       	adc	r23, r23
    294c:	88 1f       	adc	r24, r24
    294e:	99 1f       	adc	r25, r25
    2950:	1a f0       	brmi	.+6      	; 0x2958 <__fixunssfsi+0x24>
    2952:	ba 95       	dec	r27
    2954:	c9 f7       	brne	.-14     	; 0x2948 <__fixunssfsi+0x14>
    2956:	14 c0       	rjmp	.+40     	; 0x2980 <__fixunssfsi+0x4c>
    2958:	b1 30       	cpi	r27, 0x01	; 1
    295a:	91 f0       	breq	.+36     	; 0x2980 <__fixunssfsi+0x4c>
    295c:	0e 94 50 15 	call	0x2aa0	; 0x2aa0 <__fp_zero>
    2960:	b1 e0       	ldi	r27, 0x01	; 1
    2962:	08 95       	ret
    2964:	0c 94 50 15 	jmp	0x2aa0	; 0x2aa0 <__fp_zero>
    2968:	67 2f       	mov	r22, r23
    296a:	78 2f       	mov	r23, r24
    296c:	88 27       	eor	r24, r24
    296e:	b8 5f       	subi	r27, 0xF8	; 248
    2970:	39 f0       	breq	.+14     	; 0x2980 <__fixunssfsi+0x4c>
    2972:	b9 3f       	cpi	r27, 0xF9	; 249
    2974:	cc f3       	brlt	.-14     	; 0x2968 <__fixunssfsi+0x34>
    2976:	86 95       	lsr	r24
    2978:	77 95       	ror	r23
    297a:	67 95       	ror	r22
    297c:	b3 95       	inc	r27
    297e:	d9 f7       	brne	.-10     	; 0x2976 <__fixunssfsi+0x42>
    2980:	3e f4       	brtc	.+14     	; 0x2990 <__fixunssfsi+0x5c>
    2982:	90 95       	com	r25
    2984:	80 95       	com	r24
    2986:	70 95       	com	r23
    2988:	61 95       	neg	r22
    298a:	7f 4f       	sbci	r23, 0xFF	; 255
    298c:	8f 4f       	sbci	r24, 0xFF	; 255
    298e:	9f 4f       	sbci	r25, 0xFF	; 255
    2990:	08 95       	ret

00002992 <__floatunsisf>:
    2992:	e8 94       	clt
    2994:	09 c0       	rjmp	.+18     	; 0x29a8 <__floatsisf+0x12>

00002996 <__floatsisf>:
    2996:	97 fb       	bst	r25, 7
    2998:	3e f4       	brtc	.+14     	; 0x29a8 <__floatsisf+0x12>
    299a:	90 95       	com	r25
    299c:	80 95       	com	r24
    299e:	70 95       	com	r23
    29a0:	61 95       	neg	r22
    29a2:	7f 4f       	sbci	r23, 0xFF	; 255
    29a4:	8f 4f       	sbci	r24, 0xFF	; 255
    29a6:	9f 4f       	sbci	r25, 0xFF	; 255
    29a8:	99 23       	and	r25, r25
    29aa:	a9 f0       	breq	.+42     	; 0x29d6 <__floatsisf+0x40>
    29ac:	f9 2f       	mov	r31, r25
    29ae:	96 e9       	ldi	r25, 0x96	; 150
    29b0:	bb 27       	eor	r27, r27
    29b2:	93 95       	inc	r25
    29b4:	f6 95       	lsr	r31
    29b6:	87 95       	ror	r24
    29b8:	77 95       	ror	r23
    29ba:	67 95       	ror	r22
    29bc:	b7 95       	ror	r27
    29be:	f1 11       	cpse	r31, r1
    29c0:	f8 cf       	rjmp	.-16     	; 0x29b2 <__floatsisf+0x1c>
    29c2:	fa f4       	brpl	.+62     	; 0x2a02 <__floatsisf+0x6c>
    29c4:	bb 0f       	add	r27, r27
    29c6:	11 f4       	brne	.+4      	; 0x29cc <__floatsisf+0x36>
    29c8:	60 ff       	sbrs	r22, 0
    29ca:	1b c0       	rjmp	.+54     	; 0x2a02 <__floatsisf+0x6c>
    29cc:	6f 5f       	subi	r22, 0xFF	; 255
    29ce:	7f 4f       	sbci	r23, 0xFF	; 255
    29d0:	8f 4f       	sbci	r24, 0xFF	; 255
    29d2:	9f 4f       	sbci	r25, 0xFF	; 255
    29d4:	16 c0       	rjmp	.+44     	; 0x2a02 <__floatsisf+0x6c>
    29d6:	88 23       	and	r24, r24
    29d8:	11 f0       	breq	.+4      	; 0x29de <__floatsisf+0x48>
    29da:	96 e9       	ldi	r25, 0x96	; 150
    29dc:	11 c0       	rjmp	.+34     	; 0x2a00 <__floatsisf+0x6a>
    29de:	77 23       	and	r23, r23
    29e0:	21 f0       	breq	.+8      	; 0x29ea <__floatsisf+0x54>
    29e2:	9e e8       	ldi	r25, 0x8E	; 142
    29e4:	87 2f       	mov	r24, r23
    29e6:	76 2f       	mov	r23, r22
    29e8:	05 c0       	rjmp	.+10     	; 0x29f4 <__floatsisf+0x5e>
    29ea:	66 23       	and	r22, r22
    29ec:	71 f0       	breq	.+28     	; 0x2a0a <__floatsisf+0x74>
    29ee:	96 e8       	ldi	r25, 0x86	; 134
    29f0:	86 2f       	mov	r24, r22
    29f2:	70 e0       	ldi	r23, 0x00	; 0
    29f4:	60 e0       	ldi	r22, 0x00	; 0
    29f6:	2a f0       	brmi	.+10     	; 0x2a02 <__floatsisf+0x6c>
    29f8:	9a 95       	dec	r25
    29fa:	66 0f       	add	r22, r22
    29fc:	77 1f       	adc	r23, r23
    29fe:	88 1f       	adc	r24, r24
    2a00:	da f7       	brpl	.-10     	; 0x29f8 <__floatsisf+0x62>
    2a02:	88 0f       	add	r24, r24
    2a04:	96 95       	lsr	r25
    2a06:	87 95       	ror	r24
    2a08:	97 f9       	bld	r25, 7
    2a0a:	08 95       	ret

00002a0c <__fp_inf>:
    2a0c:	97 f9       	bld	r25, 7
    2a0e:	9f 67       	ori	r25, 0x7F	; 127
    2a10:	80 e8       	ldi	r24, 0x80	; 128
    2a12:	70 e0       	ldi	r23, 0x00	; 0
    2a14:	60 e0       	ldi	r22, 0x00	; 0
    2a16:	08 95       	ret

00002a18 <__fp_nan>:
    2a18:	9f ef       	ldi	r25, 0xFF	; 255
    2a1a:	80 ec       	ldi	r24, 0xC0	; 192
    2a1c:	08 95       	ret

00002a1e <__fp_pscA>:
    2a1e:	00 24       	eor	r0, r0
    2a20:	0a 94       	dec	r0
    2a22:	16 16       	cp	r1, r22
    2a24:	17 06       	cpc	r1, r23
    2a26:	18 06       	cpc	r1, r24
    2a28:	09 06       	cpc	r0, r25
    2a2a:	08 95       	ret

00002a2c <__fp_pscB>:
    2a2c:	00 24       	eor	r0, r0
    2a2e:	0a 94       	dec	r0
    2a30:	12 16       	cp	r1, r18
    2a32:	13 06       	cpc	r1, r19
    2a34:	14 06       	cpc	r1, r20
    2a36:	05 06       	cpc	r0, r21
    2a38:	08 95       	ret

00002a3a <__fp_round>:
    2a3a:	09 2e       	mov	r0, r25
    2a3c:	03 94       	inc	r0
    2a3e:	00 0c       	add	r0, r0
    2a40:	11 f4       	brne	.+4      	; 0x2a46 <__fp_round+0xc>
    2a42:	88 23       	and	r24, r24
    2a44:	52 f0       	brmi	.+20     	; 0x2a5a <__fp_round+0x20>
    2a46:	bb 0f       	add	r27, r27
    2a48:	40 f4       	brcc	.+16     	; 0x2a5a <__fp_round+0x20>
    2a4a:	bf 2b       	or	r27, r31
    2a4c:	11 f4       	brne	.+4      	; 0x2a52 <__fp_round+0x18>
    2a4e:	60 ff       	sbrs	r22, 0
    2a50:	04 c0       	rjmp	.+8      	; 0x2a5a <__fp_round+0x20>
    2a52:	6f 5f       	subi	r22, 0xFF	; 255
    2a54:	7f 4f       	sbci	r23, 0xFF	; 255
    2a56:	8f 4f       	sbci	r24, 0xFF	; 255
    2a58:	9f 4f       	sbci	r25, 0xFF	; 255
    2a5a:	08 95       	ret

00002a5c <__fp_split3>:
    2a5c:	57 fd       	sbrc	r21, 7
    2a5e:	90 58       	subi	r25, 0x80	; 128
    2a60:	44 0f       	add	r20, r20
    2a62:	55 1f       	adc	r21, r21
    2a64:	59 f0       	breq	.+22     	; 0x2a7c <__fp_splitA+0x10>
    2a66:	5f 3f       	cpi	r21, 0xFF	; 255
    2a68:	71 f0       	breq	.+28     	; 0x2a86 <__fp_splitA+0x1a>
    2a6a:	47 95       	ror	r20

00002a6c <__fp_splitA>:
    2a6c:	88 0f       	add	r24, r24
    2a6e:	97 fb       	bst	r25, 7
    2a70:	99 1f       	adc	r25, r25
    2a72:	61 f0       	breq	.+24     	; 0x2a8c <__fp_splitA+0x20>
    2a74:	9f 3f       	cpi	r25, 0xFF	; 255
    2a76:	79 f0       	breq	.+30     	; 0x2a96 <__fp_splitA+0x2a>
    2a78:	87 95       	ror	r24
    2a7a:	08 95       	ret
    2a7c:	12 16       	cp	r1, r18
    2a7e:	13 06       	cpc	r1, r19
    2a80:	14 06       	cpc	r1, r20
    2a82:	55 1f       	adc	r21, r21
    2a84:	f2 cf       	rjmp	.-28     	; 0x2a6a <__fp_split3+0xe>
    2a86:	46 95       	lsr	r20
    2a88:	f1 df       	rcall	.-30     	; 0x2a6c <__fp_splitA>
    2a8a:	08 c0       	rjmp	.+16     	; 0x2a9c <__fp_splitA+0x30>
    2a8c:	16 16       	cp	r1, r22
    2a8e:	17 06       	cpc	r1, r23
    2a90:	18 06       	cpc	r1, r24
    2a92:	99 1f       	adc	r25, r25
    2a94:	f1 cf       	rjmp	.-30     	; 0x2a78 <__fp_splitA+0xc>
    2a96:	86 95       	lsr	r24
    2a98:	71 05       	cpc	r23, r1
    2a9a:	61 05       	cpc	r22, r1
    2a9c:	08 94       	sec
    2a9e:	08 95       	ret

00002aa0 <__fp_zero>:
    2aa0:	e8 94       	clt

00002aa2 <__fp_szero>:
    2aa2:	bb 27       	eor	r27, r27
    2aa4:	66 27       	eor	r22, r22
    2aa6:	77 27       	eor	r23, r23
    2aa8:	cb 01       	movw	r24, r22
    2aaa:	97 f9       	bld	r25, 7
    2aac:	08 95       	ret

00002aae <__mulsf3>:
    2aae:	0e 94 6a 15 	call	0x2ad4	; 0x2ad4 <__mulsf3x>
    2ab2:	0c 94 1d 15 	jmp	0x2a3a	; 0x2a3a <__fp_round>
    2ab6:	0e 94 0f 15 	call	0x2a1e	; 0x2a1e <__fp_pscA>
    2aba:	38 f0       	brcs	.+14     	; 0x2aca <__mulsf3+0x1c>
    2abc:	0e 94 16 15 	call	0x2a2c	; 0x2a2c <__fp_pscB>
    2ac0:	20 f0       	brcs	.+8      	; 0x2aca <__mulsf3+0x1c>
    2ac2:	95 23       	and	r25, r21
    2ac4:	11 f0       	breq	.+4      	; 0x2aca <__mulsf3+0x1c>
    2ac6:	0c 94 06 15 	jmp	0x2a0c	; 0x2a0c <__fp_inf>
    2aca:	0c 94 0c 15 	jmp	0x2a18	; 0x2a18 <__fp_nan>
    2ace:	11 24       	eor	r1, r1
    2ad0:	0c 94 51 15 	jmp	0x2aa2	; 0x2aa2 <__fp_szero>

00002ad4 <__mulsf3x>:
    2ad4:	0e 94 2e 15 	call	0x2a5c	; 0x2a5c <__fp_split3>
    2ad8:	70 f3       	brcs	.-36     	; 0x2ab6 <__mulsf3+0x8>

00002ada <__mulsf3_pse>:
    2ada:	95 9f       	mul	r25, r21
    2adc:	c1 f3       	breq	.-16     	; 0x2ace <__mulsf3+0x20>
    2ade:	95 0f       	add	r25, r21
    2ae0:	50 e0       	ldi	r21, 0x00	; 0
    2ae2:	55 1f       	adc	r21, r21
    2ae4:	62 9f       	mul	r22, r18
    2ae6:	f0 01       	movw	r30, r0
    2ae8:	72 9f       	mul	r23, r18
    2aea:	bb 27       	eor	r27, r27
    2aec:	f0 0d       	add	r31, r0
    2aee:	b1 1d       	adc	r27, r1
    2af0:	63 9f       	mul	r22, r19
    2af2:	aa 27       	eor	r26, r26
    2af4:	f0 0d       	add	r31, r0
    2af6:	b1 1d       	adc	r27, r1
    2af8:	aa 1f       	adc	r26, r26
    2afa:	64 9f       	mul	r22, r20
    2afc:	66 27       	eor	r22, r22
    2afe:	b0 0d       	add	r27, r0
    2b00:	a1 1d       	adc	r26, r1
    2b02:	66 1f       	adc	r22, r22
    2b04:	82 9f       	mul	r24, r18
    2b06:	22 27       	eor	r18, r18
    2b08:	b0 0d       	add	r27, r0
    2b0a:	a1 1d       	adc	r26, r1
    2b0c:	62 1f       	adc	r22, r18
    2b0e:	73 9f       	mul	r23, r19
    2b10:	b0 0d       	add	r27, r0
    2b12:	a1 1d       	adc	r26, r1
    2b14:	62 1f       	adc	r22, r18
    2b16:	83 9f       	mul	r24, r19
    2b18:	a0 0d       	add	r26, r0
    2b1a:	61 1d       	adc	r22, r1
    2b1c:	22 1f       	adc	r18, r18
    2b1e:	74 9f       	mul	r23, r20
    2b20:	33 27       	eor	r19, r19
    2b22:	a0 0d       	add	r26, r0
    2b24:	61 1d       	adc	r22, r1
    2b26:	23 1f       	adc	r18, r19
    2b28:	84 9f       	mul	r24, r20
    2b2a:	60 0d       	add	r22, r0
    2b2c:	21 1d       	adc	r18, r1
    2b2e:	82 2f       	mov	r24, r18
    2b30:	76 2f       	mov	r23, r22
    2b32:	6a 2f       	mov	r22, r26
    2b34:	11 24       	eor	r1, r1
    2b36:	9f 57       	subi	r25, 0x7F	; 127
    2b38:	50 40       	sbci	r21, 0x00	; 0
    2b3a:	9a f0       	brmi	.+38     	; 0x2b62 <__mulsf3_pse+0x88>
    2b3c:	f1 f0       	breq	.+60     	; 0x2b7a <__mulsf3_pse+0xa0>
    2b3e:	88 23       	and	r24, r24
    2b40:	4a f0       	brmi	.+18     	; 0x2b54 <__mulsf3_pse+0x7a>
    2b42:	ee 0f       	add	r30, r30
    2b44:	ff 1f       	adc	r31, r31
    2b46:	bb 1f       	adc	r27, r27
    2b48:	66 1f       	adc	r22, r22
    2b4a:	77 1f       	adc	r23, r23
    2b4c:	88 1f       	adc	r24, r24
    2b4e:	91 50       	subi	r25, 0x01	; 1
    2b50:	50 40       	sbci	r21, 0x00	; 0
    2b52:	a9 f7       	brne	.-22     	; 0x2b3e <__mulsf3_pse+0x64>
    2b54:	9e 3f       	cpi	r25, 0xFE	; 254
    2b56:	51 05       	cpc	r21, r1
    2b58:	80 f0       	brcs	.+32     	; 0x2b7a <__mulsf3_pse+0xa0>
    2b5a:	0c 94 06 15 	jmp	0x2a0c	; 0x2a0c <__fp_inf>
    2b5e:	0c 94 51 15 	jmp	0x2aa2	; 0x2aa2 <__fp_szero>
    2b62:	5f 3f       	cpi	r21, 0xFF	; 255
    2b64:	e4 f3       	brlt	.-8      	; 0x2b5e <__mulsf3_pse+0x84>
    2b66:	98 3e       	cpi	r25, 0xE8	; 232
    2b68:	d4 f3       	brlt	.-12     	; 0x2b5e <__mulsf3_pse+0x84>
    2b6a:	86 95       	lsr	r24
    2b6c:	77 95       	ror	r23
    2b6e:	67 95       	ror	r22
    2b70:	b7 95       	ror	r27
    2b72:	f7 95       	ror	r31
    2b74:	e7 95       	ror	r30
    2b76:	9f 5f       	subi	r25, 0xFF	; 255
    2b78:	c1 f7       	brne	.-16     	; 0x2b6a <__mulsf3_pse+0x90>
    2b7a:	fe 2b       	or	r31, r30
    2b7c:	88 0f       	add	r24, r24
    2b7e:	91 1d       	adc	r25, r1
    2b80:	96 95       	lsr	r25
    2b82:	87 95       	ror	r24
    2b84:	97 f9       	bld	r25, 7
    2b86:	08 95       	ret

00002b88 <__tablejump2__>:
    2b88:	ee 0f       	add	r30, r30
    2b8a:	ff 1f       	adc	r31, r31
    2b8c:	05 90       	lpm	r0, Z+
    2b8e:	f4 91       	lpm	r31, Z
    2b90:	e0 2d       	mov	r30, r0
    2b92:	09 94       	ijmp

00002b94 <_exit>:
    2b94:	f8 94       	cli

00002b96 <__stop_program>:
    2b96:	ff cf       	rjmp	.-2      	; 0x2b96 <__stop_program>
